******************************************************************************
                  TI ARM Linker PC v16.9.0                     
******************************************************************************
>> Linked Wed Nov 30 20:23:58 2016

OUTPUT FILE NAME:   <SensorTagStack.out>
ENTRY POINT SYMBOL: "startup_entry"  address: 0000f001


MEMORY CONFIGURATION

         name            origin    length      used     unused   attr    fill
----------------------  --------  ---------  --------  --------  ----  --------
  FLASH                 0000f000   00010000  0000f1c6  00000e3a  R  X
  SRAM                  20004460   00000487  0000045b  0000002c  RW X
  $BOUND$0x20004fec     20004fec   00000010  00000010  00000000  R IX


SEGMENT ALLOCATION MAP

run origin  load origin   length   init length attrs members
----------  ----------- ---------- ----------- ----- -------
0000f000    0000f000    0000f1c8   0000f1c8    r-x
  0000f000    0000f000    000001f4   000001f4    r-x EntrySection
  0000f1f4    0000f1f4    0000e6a8   0000e6a8    r-x .text
  0001d89c    0001d89c    00000794   00000794    r-- .const
  0001e030    0001e030    0000006e   0000006e    r-- .rodata
  0001e0a0    0001e0a0    00000128   00000128    r-- .cinit
20004460    20004460    0000045e   00000000    rw-
  20004460    20004460    000002dd   00000000    rw- .data
  20004740    20004740    0000017e   00000000    rw- .bss
20004fec    20004fec    00000010   00000000    rw-
  20004fec    20004fec    00000010   00000000    rw- .TI.bound:mbIntCbackTable


SECTION ALLOCATION MAP

 output                                  attributes/
section   page    origin      length       input sections
--------  ----  ----------  ----------   ----------------
EntrySection 
*          0    0000f000    000001f4     
                  0000f000    000001f4     ICall_startup.obj (EntrySection:startup_entry)

.text      0    0000f1f4    0000e6a8     
                  0000f1f4    000010c0     CC2640_BLE_peri_HF_CF_FlashROM.a : ll_common_PATCH.o (.text)
                  000102b4    00001030                                      : gattservapp.o (.text)
                  000112e4    00000fc0                                      : ll_PATCH.o (.text)
                  000122a4    00000ed4                                      : l2cap_util.o (.text)
                  00013178    00000a4c                                      : gatt_server.o (.text)
                  00013bc4    0000093e                                      : ll_slaveEndCauses_PATCH.o (.text)
                  00014502    00000002     OnBoard.obj (.text:Onboard_soft_reset)
                  00014504    000008dc     CC2640_BLE_peri_HF_CF_FlashROM.a : gap_linkmgr.o (.text)
                  00014de0    000007f0     bleDispatch.obj (.text:bleDispatch_ProcessEvent)
                  000155d0    0000075c     CC2640_BLE_peri_HF_CF_FlashROM.a : sm_pairing.o (.text)
                  00015d2c    00000708                                      : sm_mgr.o (.text)
                  00016434    000006d4                                      : ll_sleep.o (.text)
                  00016b08    0000069c                                      : gap_peridevmgr.o (.text)
                  000171a4    00000618                                      : ll_config.o (.text)
                  000177bc    000005b0                                      : att_util.o (.text)
                  00017d6c    0000057e                                      : ble_PATCH.o (.text)
                  000182ea    00000002     hal_assert.obj (.text:halAssertHandler)
                  000182ec    00000558     CC2640_BLE_peri_HF_CF_FlashROM.a : sm_rsppairing.o (.text)
                  00018844    00000530                                      : l2cap_task.o (.text)
                  00018d74    000004b0                                      : ll_isr.o (.text)
                  00019224    0000042e                                      : ll_advEndCauses_PATCH.o (.text)
                  00019652    00000002     rtsv7M3_T_le_eabi.lib : startup.obj (.text)
                  00019654    000003fc     CC2640_BLE_peri_HF_CF_FlashROM.a : l2cap_if.o (.text)
                  00019a50    000003dc                                      : hci_event_PATCH.o (.text)
                  00019e2c    0000039a                                      : smp.o (.text)
                  0001a1c6    00000002     --HOLE-- [fill = 0]
                  0001a1c8    0000037c                                      : hci_PATCH.o (.text)
                  0001a544    00000358                                      : gap_configmgr.o (.text)
                  0001a89c    00000308                                      : gapgattserver.o (.text)
                  0001aba4    000002fc                                      : gatt_task.o (.text)
                  0001aea0    00000294                                      : linkdb.o (.text)
                  0001b134    0000028c                                      : gap_task.o (.text)
                  0001b3c0    000001fc     OSAL.obj (.text:osal_start_system)
                  0001b5bc    000001f4     rtsv7M3_T_le_eabi.lib : ull_div_t2.obj (.text)
                  0001b7b0    000001ec     CC2640_BLE_peri_HF_CF_FlashROM.a : att_server.o (.text)
                  0001b99c    0000013e                                      : gatt_uuid.o (.text)
                  0001bada    00000002     --HOLE-- [fill = 0]
                  0001badc    00000138                                      : ll_scheduler_PATCH.o (.text)
                  0001bc14    0000010c                                      : gap_perilinkmgr.o (.text)
                  0001bd20    00000104                                      : sm_task.o (.text)
                  0001be24    000000e8     OSAL_Timers.obj (.text:osalTimerUpdate)
                  0001bf0c    000000d4     mb_PATCH.obj (.text:MB_SendCommandSynch)
                  0001bfe0    000000ac     OSAL.obj (.text:osal_set_event)
                  0001c08c    000000a8     CC2640_BLE_HCI_TL_None_v41.a : hci_tl.o (.text)
                  0001c134    000000a8     CC2640_BLE_peri_HF_CF_FlashROM.a : hci_data_PATCH.o (.text)
                  0001c1dc    00000008     ble_rom_PATCH.symbols (.tramp.LL_CtrlToHostFlowControl.1)
                  0001c1e4    0000009c     osal_cbtimer.obj (.text:cbTimerSetup$13)
                  0001c280    0000009c     OSAL.obj (.text:osal_msg_enqueue_push$7)
                  0001c31c    0000009c     rtsv7M3_T_le_eabi.lib : memcpy_t2.obj (.text)
                  0001c3b8    00000094     osal_cbtimer.obj (.text:osal_CbTimerProcessEvent)
                  0001c44c    00000094     OSAL.obj (.text:osal_msg_receive)
                  0001c4e0    00000084     mb_PATCH.obj (.text:MB_SendCommand)
                  0001c564    00000082     CC2640_BLE_peri_HF_CF_FlashROM.a : gap_devmgr.o (.text)
                  0001c5e6    0000007a     rtsv7M3_T_le_eabi.lib : memset_t2.obj (.text)
                  0001c660    00000078     driverlib.lib : interrupt.obj (.text:NOROM_IntDisable)
                  0001c6d8    00000078                   : interrupt.obj (.text:NOROM_IntEnable)
                  0001c750    00000070     rtsv7M3_T_le_eabi.lib : autoinit.obj (.text)
                  0001c7c0    0000006c     mb_PATCH.obj (.text:MB_EnableInts)
                  0001c82c    00000068     rtsv7M3_T_le_eabi.lib : copy_decompress_lzss.obj (.text:decompress:lzss)
                  0001c894    00000068     osal_cbtimer.obj (.text:osal_CbTimerUpdate)
                  0001c8fc    00000068     OSAL_PwrMgr.obj (.text:osal_pwrmgr_task_state)
                  0001c964    00000062     gattservapp_util.obj (.text:GATTServApp_ProcessCCCWriteReq)
                  0001c9c6    00000002     --HOLE-- [fill = 0]
                  0001c9c8    00000060     OSAL.obj (.text:osal_msg_send)
                  0001ca28    00000058     osal_cbtimer.obj (.text:osal_CbTimerStop)
                  0001ca80    00000054     bleDispatch.obj (.text:sendGapCmdStatus$5)
                  0001cad4    0000004c     mb_PATCH.obj (.text:MB_Init)
                  0001cb20    0000004c     osal_bufmgr.obj (.text:osal_bm_free)
                  0001cb6c    0000004c     rtsv7M3_T_le_eabi.lib : cpy_tbl.obj (.text)
                  0001cbb8    00000048     OSAL_Timers.obj (.text:osalAddTimer)
                  0001cc00    00000044     mb_PATCH.obj (.text:MB_DisableInts)
                  0001cc44    00000040     hal_trng_wrapper.obj (.text:HalTRNG_GetTRNG)
                  0001cc84    00000040     OSAL.obj (.text:ICall_setTimer$7)
                  0001ccc4    0000003c     OSAL.obj (.text:ICall_setTimerMSecs$7)
                  0001cd00    0000003c     mb_PATCH.obj (.text:MB_EnableHWInts)
                  0001cd3c    0000003c     osal_bufmgr.obj (.text:osal_bm_alloc)
                  0001cd78    0000003c     OSAL_Timers.obj (.text:osal_start_reload_timer)
                  0001cdb4    00000038     OSAL_ICallBle.obj (.text:ICall_enrollService$20)
                  0001cdec    00000034     gattservapp_util.obj (.text:GATTServApp_InitCharCfg)
                  0001ce20    00000034     hal_trng_wrapper.obj (.text:HalTRNG_InitTRNG)
                  0001ce54    00000034     OSAL.obj (.text:ICall_send$7)
                  0001ce88    00000034     mb_PATCH.obj (.text:mbCpe0Isr)
                  0001cebc    00000034     mb_PATCH.obj (.text:mbCpe1Isr)
                  0001cef0    00000034     mb_PATCH.obj (.text:mbHwIsr)
                  0001cf24    00000034     OSAL.obj (.text:osal_clear_event)
                  0001cf58    00000034     OSAL_Timers.obj (.text:osal_start_timerEx)
                  0001cf8c    00000034     OSAL_Timers.obj (.text:osal_stop_timerEx)
                  0001cfc0    00000030     OSAL.obj (.text:osal_alien2proxy$7)
                  0001cff0    00000030     OSAL_Timers.obj (.text:osal_get_timeoutEx)
                  0001d020    0000002e     OSAL.obj (.text:osal_build_uint32)
                  0001d04e    00000002     --HOLE-- [fill = 0]
                  0001d050    0000002c     mb_PATCH.obj (.text:ICall_registerISR_Ext$4)
                  0001d07c    0000002c     bleDispatch.obj (.text:bleDispatch_BMAlloc)
                  0001d0a8    0000002c     OSAL.obj (.text:osal_msec_timer_cback$7)
                  0001d0d4    00000028     osal_bufmgr.obj (.text:osal_bm_adjust_header)
                  0001d0fc    00000028     OSAL_MemoryICall.obj (.text:osal_mem_alloc)
                  0001d124    00000028     OSAL_Timers.obj (.text:osal_next_timeout)
                  0001d14c    00000024     mb_PATCH.obj (.text:MB_ClearInts)
                  0001d170    00000024     osal_bufmgr.obj (.text:bm_desc_from_payload$12)
                  0001d194    00000024     OSAL.obj (.text:osal_msg_allocate)
                  0001d1b8    00000024     OSAL.obj (.text:osal_service_entry)
                  0001d1dc    00000020     mb_PATCH.obj (.text:ICall_disableInt$4)
                  0001d1fc    00000020     mb_PATCH.obj (.text:ICall_enableInt$4)
                  0001d21c    00000020     OSAL.obj (.text:ICall_getTicks$7)
                  0001d23c    00000020     OSAL_PwrMgr.obj (.text:ICall_pwrUpdActivityCounter$10)
                  0001d25c    00000020     OSAL.obj (.text:ICall_signal$7)
                  0001d27c    00000020     gattservapp_util.obj (.text:gattServApp_FindCharCfgItem$17)
                  0001d29c    00000020     mb_PATCH.obj (.text:mbCmdAckIsr)
                  0001d2bc    00000020     OSAL_Timers.obj (.text:osalFindTimer)
                  0001d2dc    00000020     OSAL_MemoryICall.obj (.text:osal_mem_free)
                  0001d2fc    00000020     OSAL.obj (.text:osal_memcmp)
                  0001d31c    00000020     OSAL.obj (.text:osal_msg_deallocate)
                  0001d33c    0000001c     OSAL.obj (.text:ICall_abort$7)
                  0001d358    0000001c     bleDispatch.obj (.text:checkNVLen$5)
                  0001d374    0000001c     OSAL.obj (.text:osal_memdup)
                  0001d390    0000001c     OSAL.obj (.text:osal_proxy2alien$7)
                  0001d3ac    0000001c     OSAL.obj (.text:osal_revmemcpy)
                  0001d3c8    0000001a     OSAL.obj (.text:osal_isbufset)
                  0001d3e2    00000018     bleDispatch.obj (.text:bleDispatch_BMFree)
                  0001d3fa    00000018     OSAL.obj (.text:osal_buffer_uint32)
                  0001d412    00000018     OSAL.obj (.text:osal_memcpy)
                  0001d42a    00000018     rtsv7M3_T_le_eabi.lib : ll_mul_t2.obj (.text)
                  0001d442    00000016     ROM_Init.obj (.text:ROM_Spinlock)
                  0001d458    00000014     OSAL.obj (.text:osal_strlen)
                  0001d46c    00000010     gattservapp_util.obj (.text:GATTServApp_ReadCharCfg)
                  0001d47c    00000010     ROM_Init.obj (.text:IntMasterDisable$21)
                  0001d48c    00000010     ROM_Init.obj (.text:IntMasterEnable$21)
                  0001d49c    00000010     OSAL.obj (.text:osal_rand)
                  0001d4ac    00000008     ble_rom_PATCH.symbols (.tramp.LL_PseudoRand.1)
                  0001d4b4    0000000e     rtsv7M3_T_le_eabi.lib : copy_decompress_none.obj (.text:decompress:none)
                  0001d4c2    0000000c     driverlib.lib : cpu.obj (.text:NOROM_CPUcpsid)
                  0001d4ce    0000000c                   : cpu.obj (.text:NOROM_CPUcpsie)
                  0001d4da    0000000c     rtsv7M3_T_le_eabi.lib : copy_zero_init.obj (.text:decompress:ZI)
                  0001d4e6    0000000c     osal_cbtimer.obj (.text:osal_CbTimerStart)
                  0001d4f2    00000002     --HOLE-- [fill = 0]
                  0001d4f4    0000000c     OSAL.obj (.text:osal_self)
                  0001d500    00000004     OSAL.obj (.text:osal_memset)
                  0001d504    00000004     osal_snv_wrapper.obj (.text:osal_snv_read)
                  0001d508    00000004     osal_snv_wrapper.obj (.text:osal_snv_write)
                  0001d50c    00000008     ble_rom_PATCH.symbols (.tramp.HCI_LE_SetRandomAddressCmd.1)
                  0001d514    00000008     ble_rom_PATCH.symbols (.tramp.LL_ReadLocalVersionInfo.1)
                  0001d51c    00000008     ble_rom_PATCH.symbols (.tramp.LL_EXT_ResetSystem.1)
                  0001d524    00000008     ble_rom_PATCH.symbols (.tramp.HCI_CommandStatusEvent.1)
                  0001d52c    00000008     ble_rom_PATCH.symbols (.tramp.HCI_CommandCompleteEvent.1)
                  0001d534    00000008     ble_rom_PATCH.symbols (.tramp.HCI_SendCommandCompleteEvent.1)
                  0001d53c    00000008     ble_rom_PATCH.symbols (.tramp.HCI_HostNumCompletedPktCmd.1)
                  0001d544    00000008     ble_rom_PATCH.symbols (.tramp.HCI_HostBufferSizeCmd.1)
                  0001d54c    00000008     ble_rom_PATCH.symbols (.tramp.HCI_SetControllerToHostFlowCtrlCmd.1)
                  0001d554    00000008     ble_rom_PATCH.symbols (.tramp.llCalcScaFactor.1)
                  0001d55c    00000008     ble_rom_PATCH.symbols (.tramp.LL_ENC_Decrypt.1)
                  0001d564    00000008     ble_rom_PATCH.symbols (.tramp.HCI_LE_LtkReqNegReplyCmd.1)
                  0001d56c    00000008     ble_rom_PATCH.symbols (.tramp.HCI_LE_LtkReqReplyCmd.1)
                  0001d574    00000008     ble_rom_PATCH.symbols (.tramp.llGetNumTxDataEntries.1)
                  0001d57c    00000008     ble_rom_PATCH.symbols (.tramp.LL_ENC_GenDeviceIV.1)
                  0001d584    00000008     ble_rom_PATCH.symbols (.tramp.LL_ENC_GenDeviceSKD.1)
                  0001d58c    00000008     ble_rom_PATCH.symbols (.tramp.LL_ENC_ReverseBytes.1)
                  0001d594    00000008     ble_rom_PATCH.symbols (.tramp.llMemCopySrc.1)
                  0001d59c    00000008     ble_rom_PATCH.symbols (.tramp.HCI_LE_SetAdvParamCmd.1)
                  0001d5a4    00000008     ble_rom_PATCH.symbols (.tramp.HCI_LE_SetAdvEnableCmd.1)
                  0001d5ac    00000008     ble_rom_PATCH.symbols (.tramp.HCI_LE_SetScanRspDataCmd.1)
                  0001d5b4    00000008     ble_rom_PATCH.symbols (.tramp.HCI_LE_SetAdvDataCmd.1)
                  0001d5bc    00000008     ble_rom_PATCH.symbols (.tramp.llPatchCM0.1)
                  0001d5c4    00000008     ble_rom_PATCH.symbols (.tramp.LL_Encrypt.1)
                  0001d5cc    00000008     ble_rom_PATCH.symbols (.tramp.HCI_LE_RandCmd.1)
                  0001d5d4    00000008     ble_rom_PATCH.symbols (.tramp.HCI_ReadRemoteVersionInfoCmd.1)
                  0001d5dc    00000008     ble_rom_PATCH.symbols (.tramp.HCI_SetEventMaskCmd.1)
                  0001d5e4    00000008     ble_rom_PATCH.symbols (.tramp.HCI_ReadTransmitPowerLevelCmd.1)
                  0001d5ec    00000008     ble_rom_PATCH.symbols (.tramp.HCI_ReadLocalSupportedFeaturesCmd.1)
                  0001d5f4    00000008     ble_rom_PATCH.symbols (.tramp.HCI_ReadBDADDRCmd.1)
                  0001d5fc    00000008     ble_rom_PATCH.symbols (.tramp.HCI_ReadRssiCmd.1)
                  0001d604    00000008     ble_rom_PATCH.symbols (.tramp.HCI_LE_ReadLocalSupportedFeaturesCmd.1)
                  0001d60c    00000008     ble_rom_PATCH.symbols (.tramp.HCI_LE_ReadAdvChanTxPowerCmd.1)
                  0001d614    00000008     ble_rom_PATCH.symbols (.tramp.HCI_LE_ReadWhiteListSizeCmd.1)
                  0001d61c    00000008     ble_rom_PATCH.symbols (.tramp.HCI_LE_ClearWhiteListCmd.1)
                  0001d624    00000008     ble_rom_PATCH.symbols (.tramp.HCI_LE_AddWhiteListCmd.1)
                  0001d62c    00000008     ble_rom_PATCH.symbols (.tramp.HCI_LE_RemoveWhiteListCmd.1)
                  0001d634    00000008     ble_rom_PATCH.symbols (.tramp.HCI_LE_ReadChannelMapCmd.1)
                  0001d63c    00000008     ble_rom_PATCH.symbols (.tramp.HCI_LE_EncryptCmd.1)
                  0001d644    00000008     ble_rom_PATCH.symbols (.tramp.HCI_LE_ReadSupportedStatesCmd.1)
                  0001d64c    00000008     ble_rom_PATCH.symbols (.tramp.HCI_LE_TestEndCmd.1)
                  0001d654    00000008     ble_rom_PATCH.symbols (.tramp.HCI_EXT_SetTxPowerCmd.1)
                  0001d65c    00000008     ble_rom_PATCH.symbols (.tramp.HCI_EXT_OnePktPerEvtCmd.1)
                  0001d664    00000008     ble_rom_PATCH.symbols (.tramp.HCI_EXT_DecryptCmd.1)
                  0001d66c    00000008     ble_rom_PATCH.symbols (.tramp.HCI_EXT_SetLocalSupportedFeaturesCmd.1)
                  0001d674    00000008     ble_rom_PATCH.symbols (.tramp.HCI_EXT_SetFastTxResponseTimeCmd.1)
                  0001d67c    00000008     ble_rom_PATCH.symbols (.tramp.HCI_EXT_ModemTestTxCmd.1)
                  0001d684    00000008     ble_rom_PATCH.symbols (.tramp.HCI_EXT_ModemHopTestTxCmd.1)
                  0001d68c    00000008     ble_rom_PATCH.symbols (.tramp.HCI_EXT_ModemTestRxCmd.1)
                  0001d694    00000008     ble_rom_PATCH.symbols (.tramp.HCI_EXT_EndModemTestCmd.1)
                  0001d69c    00000008     ble_rom_PATCH.symbols (.tramp.HCI_EXT_SetBDADDRCmd.1)
                  0001d6a4    00000008     ble_rom_PATCH.symbols (.tramp.HCI_EXT_SetSCACmd.1)
                  0001d6ac    00000008     ble_rom_PATCH.symbols (.tramp.HCI_EXT_EnablePTMCmd.1)
                  0001d6b4    00000008     ble_rom_PATCH.symbols (.tramp.HCI_EXT_SetMaxDtmTxPowerCmd.1)
                  0001d6bc    00000008     ble_rom_PATCH.symbols (.tramp.HCI_EXT_DisconnectImmedCmd.1)
                  0001d6c4    00000008     ble_rom_PATCH.symbols (.tramp.HCI_EXT_PacketErrorRateCmd.1)
                  0001d6cc    00000008     ble_rom_PATCH.symbols (.tramp.HCI_EXT_PERbyChanCmd.1)
                  0001d6d4    00000008     ble_rom_PATCH.symbols (.tramp.HCI_EXT_AdvEventNoticeCmd.1)
                  0001d6dc    00000008     ble_rom_PATCH.symbols (.tramp.HCI_EXT_SetSlaveLatencyOverrideCmd.1)
                  0001d6e4    00000008     ble_rom_PATCH.symbols (.tramp.HCI_EXT_BuildRevisionCmd.1)
                  0001d6ec    00000008     ble_rom_PATCH.symbols (.tramp.HCI_EXT_NumComplPktsLimitCmd.1)
                  0001d6f4    00000008     ble_rom_PATCH.symbols (.tramp.HCI_DisconnectCmd.1)
                  0001d6fc    00000008     ble_rom_PATCH.symbols (.tramp.llMoveTempTxDataEntries.1)
                  0001d704    00000008     ble_rom_PATCH.symbols (.tramp.llSetupVersionIndReq.1)
                  0001d70c    00000008     ble_rom_PATCH.symbols (.tramp.LL_ReadRemoteVersionInfoCback.1)
                  0001d714    00000008     ble_rom_PATCH.symbols (.tramp.llSetupPauseEncRsp.1)
                  0001d71c    00000008     ble_rom_PATCH.symbols (.tramp.llSetupStartEncRsp.1)
                  0001d724    00000008     ble_rom_PATCH.symbols (.tramp.LL_EncChangeCback.1)
                  0001d72c    00000008     ble_rom_PATCH.symbols (.tramp.LL_EncKeyRefreshCback.1)
                  0001d734    00000008     ble_rom_PATCH.symbols (.tramp.LL_ENC_AES128_Encrypt.1)
                  0001d73c    00000008     ble_rom_PATCH.symbols (.tramp.llSetupStartEncReq.1)
                  0001d744    00000008     ble_rom_PATCH.symbols (.tramp.llSetupEncRsp.1)
                  0001d74c    00000008     ble_rom_PATCH.symbols (.tramp.LL_EncLtkReqCback.1)
                  0001d754    00000008     ble_rom_PATCH.symbols (.tramp.llSetupUnknownRsp.1)
                  0001d75c    00000008     ble_rom_PATCH.symbols (.tramp.llEventInRange.1)
                  0001d764    00000008     ble_rom_PATCH.symbols (.tramp.llCheckForLstoDuringSL.1)
                  0001d76c    00000008     ble_rom_PATCH.symbols (.tramp.llConnTerminate.1)
                  0001d774    00000008     ble_rom_PATCH.symbols (.tramp.HCI_SendDataPkt.1)
                  0001d77c    00000008     ble_rom_PATCH.symbols (.tramp.llGetNumTasks.1)
                  0001d784    00000008     ble_rom_PATCH.symbols (.tramp.llScheduler.1)
                  0001d78c    00000008     ble_rom_PATCH.symbols (.tramp.llSetupAdv.1)
                  0001d794    00000008     ble_rom_PATCH.symbols (.tramp.LL_DirectTestEndDoneCback.1)
                  0001d79c    00000008     ble_rom_PATCH.symbols (.tramp.llRfStartFS.1)
                  0001d7a4    00000008     ble_rom_PATCH.symbols (.tramp.HCI_DataBufferOverflowEvent.1)
                  0001d7ac    00000008     ble_rom_PATCH.symbols (.tramp.llReleaseAllConnId.1)
                  0001d7b4    00000008     ble_rom_PATCH.symbols (.tramp.LL_ClearWhiteList.1)
                  0001d7bc    00000008     ble_rom_PATCH.symbols (.tramp.LL_ENC_Init.1)
                  0001d7c4    00000008     ble_rom_PATCH.symbols (.tramp.WL_Init.1)
                  0001d7cc    00000008     ble_rom_PATCH.symbols (.tramp.LL_ConnectionCompleteCback.1)
                  0001d7d4    00000008     ble_rom_PATCH.symbols (.tramp.LL_ENC_GenerateTrueRandNum.1)
                  0001d7dc    00000008     ble_rom_PATCH.symbols (.tramp.llInitRAT.1)
                  0001d7e4    00000008     ble_rom_PATCH.symbols (.tramp.llSetupRfHal.1)
                  0001d7ec    00000008     ble_rom_PATCH.symbols (.tramp.llSetupMailbox.1)
                  0001d7f4    00000008     ble_rom_PATCH.symbols (.tramp.llResetRadio.1)
                  0001d7fc    00000008     ble_rom_PATCH.symbols (.tramp.llSetupRejectInd.1)
                  0001d804    00000008     ble_rom_PATCH.symbols (.tramp.WL_FindEntry.1)
                  0001d80c    00000008     ble_rom_PATCH.symbols (.tramp.llEnqueueCtrlPkt.1)
                  0001d814    00000008     ble_rom_PATCH.symbols (.tramp.LL_ConnActive.1)
                  0001d81c    00000008     ble_rom_PATCH.symbols (.tramp.llHaltRadio.1)
                  0001d824    00000008     ble_rom_PATCH.symbols (.tramp.llGetCurrentTask.1)
                  0001d82c    00000008     ble_rom_PATCH.symbols (.tramp.LL_RX_bm_alloc.1)
                  0001d834    00000008     ble_rom_PATCH.symbols (.tramp.HCI_HardwareErrorEvent.1)
                  0001d83c    00000008     ble_rom_PATCH.symbols (.tramp.HCI_bm_alloc.1)
                  0001d844    00000008     ble_rom_PATCH.symbols (.tramp.llWriteTxData.1)
                  0001d84c    00000008     ble_rom_PATCH.symbols (.tramp.llGetCurrentTime.1)
                  0001d854    00000008     ble_rom_PATCH.symbols (.tramp.llConvertCtrlProcTimeoutToEvent.1)
                  0001d85c    00000008     ble_rom_PATCH.symbols (.tramp.llConvertLstoToEvent.1)
                  0001d864    00000008     ble_rom_PATCH.symbols (.tramp.llTimeDelta.1)
                  0001d86c    00000008     ble_rom_PATCH.symbols (.tramp.llTimeCompare.1)
                  0001d874    00000008     ble_rom_PATCH.symbols (.tramp.llFreeTask.1)
                  0001d87c    00000008     ble_rom_PATCH.symbols (.tramp.llReleaseConnId.1)
                  0001d884    00000008     ble_rom_PATCH.symbols (.tramp.LL_ENC_Encrypt.1)
                  0001d88c    00000008     ble_rom_PATCH.symbols (.tramp.LL_TX_bm_alloc.1)
                  0001d894    00000008     ble_rom_PATCH.symbols (.tramp.llEventDelta.1)

.const     0    0001d89c    00000794     
                  0001d89c    00000664     ROM_Init.obj (.const:$O11$$)
                  0001df00    0000010c     CommonROM_Init.obj (.const:$O9$$)
                  0001e00c    00000024     OSAL_ICallBle.obj (.const:tasksArr)

.rodata    0    0001e030    0000006e     
                  0001e030    0000005c     CC2640_BLE_peri_HF_CF_FlashROM.a : ll_config.o (.rodata)
                  0001e08c    00000008                                      : gapgattserver.o (.rodata)
                  0001e094    00000008                                      : gattservapp.o (.rodata)
                  0001e09c    00000002                                      : ll_PATCH.o (.rodata)

.cinit     0    0001e0a0    00000128     
                  0001e0a0    000000f4     (.cinit..data.load) [load image, compression = lzss]
                  0001e194    0000000c     (__TI_handler_table)
                  0001e1a0    00000008     (.cinit..TI.bound:mbIntCbackTable.load) [load image, compression = zero_init]
                  0001e1a8    00000008     (.cinit..bss.load) [load image, compression = zero_init]
                  0001e1b0    00000018     (__TI_cinit_table)

.init_array 
*          0    0000f000    00000000     UNINITIALIZED

.data      0    20004460    000002dd     UNINITIALIZED
                  20004460    0000007c     osal_cbtimer.obj (.data:$O7$$)
                  200044dc    00000070     CC2640_BLE_peri_HF_CF_FlashROM.a : gapgattserver.o (.data)
                  2000454c    00000050                                      : gap_configmgr.o (.data)
                  2000459c    00000040                                      : gattservapp.o (.data)
                  200045dc    0000003c                                      : ll_sleep.o (.data)
                  20004618    00000030     OSAL.obj (.data:$O3$$)
                  20004648    0000002c     CC2640_BLE_peri_HF_CF_FlashROM.a : gap_configmgr.o (.data)
                  20004674    00000024                                      : gapgattserver.o (.data)
                  20004698    0000001c                                      : gap_linkmgr.o (.data)
                  200046b4    0000001c                                      : gap_peridevmgr.o (.data)
                  200046d0    00000014                                      : l2cap_task.o (.data)
                  200046e4    00000010                                      : ll_config.o (.data)
                  200046f4    0000000c                                      : gap_task.o (.data)
                  20004700    0000000c                                      : ll_common_PATCH.o (.data)
                  2000470c    0000000c                                      : sm_rsppairing.o (.data)
                  20004718    00000008     OSAL_Clock.obj (.data:$O4$$)
                  20004720    00000008     CC2640_BLE_peri_HF_CF_FlashROM.a : gatt_server.o (.data)
                  20004728    00000004     OSAL_PwrMgr.obj (.data:$O5$$)
                  2000472c    00000004     CC2640_BLE_peri_HF_CF_FlashROM.a : gap_perilinkmgr.o (.data)
                  20004730    00000004     osal_bufmgr.obj (.data)
                  20004734    00000002     CC2640_BLE_peri_HF_CF_FlashROM.a : l2cap_task.o (.data)
                  20004736    00000001                                      : gapgattserver.o (.data)
                  20004737    00000001                                      : gapgattserver.o (.data)
                  20004738    00000001                                      : gapgattserver.o (.data)
                  20004739    00000001                                      : gatt_server.o (.data)
                  2000473a    00000001                                      : gatt_task.o (.data)
                  2000473b    00000001                                      : gattservapp.o (.data)
                  2000473c    00000001                                      : gattservapp.o (.data)

.bss       0    20004740    0000017e     UNINITIALIZED
                  20004740    0000003c     bleDispatch.obj (.bss:$O2$$)
                  2000477c    00000038     CC2640_BLE_peri_HF_CF_FlashROM.a : linkdb.o (.bss)
                  200047b4    00000030                                      : l2cap_task.o (.bss)
                  200047e4    00000020                                      : gattservapp.o (.bss)
                  20004804    0000001c                                      : ll_PATCH.o (.bss)
                  20004820    00000018                                      : ll_sleep.o (.bss)
                  20004838    00000010                                      : hci_event_PATCH.o (.bss)
                  20004848    0000000c     ICall_startup.obj (.bss:$O10$$)
                  20004854    0000000c     CC2640_BLE_peri_HF_CF_FlashROM.a : gattservapp.o (.bss)
                  20004860    0000000c                                      : sm_pairing.o (.bss)
                  2000486c    00000008     OSAL_Timers.obj (.bss:$O6$$)
                  20004874    00000008     CC2640_BLE_peri_HF_CF_FlashROM.a : gatt_task.o (.bss)
                  2000487c    00000004                                      : att_server.o (.bss)
                  20004880    00000004                                      : ble_PATCH.o (.bss)
                  20004884    00000004                                      : ble_PATCH.o (.bss)
                  20004888    00000004                                      : gap_devmgr.o (.bss)
                  2000488c    00000004                                      : gap_devmgr.o (.bss)
                  20004890    00000004                                      : gap_linkmgr.o (.bss)
                  20004894    00000004                                      : gapgattserver.o (.bss)
                  20004898    00000004                                      : gatt_server.o (.bss)
                  2000489c    00000004                                      : gattservapp.o (.bss)
                  200048a0    00000004                                      : sm_mgr.o (.bss)
                  200048a4    00000004     hal_trng_wrapper.obj (.bss)
                  200048a8    00000004     (.common:tasksEvents)
                  200048ac    00000002     CC2640_BLE_peri_HF_CF_FlashROM.a : gap_peridevmgr.o (.bss)
                  200048ae    00000002                                      : gatt_task.o (.bss)
                  200048b0    00000002                                      : ll_slaveEndCauses_PATCH.o (.bss)
                  200048b2    00000001     CC2640_BLE_HCI_TL_None_v41.a : hci_tl.o (.bss)
                  200048b3    00000001                                  : hci_tl.o (.bss)
                  200048b4    00000001                                  : hci_tl.o (.bss)
                  200048b5    00000001                                  : hci_tl.o (.bss)
                  200048b6    00000001                                  : hci_tl.o (.bss)
                  200048b7    00000001                                  : hci_tl.o (.bss)
                  200048b8    00000001     CC2640_BLE_peri_HF_CF_FlashROM.a : l2cap_if.o (.bss)
                  200048b9    00000001                                      : l2cap_util.o (.bss)
                  200048ba    00000001                                      : l2cap_util.o (.bss)
                  200048bb    00000001                                      : ll_common_PATCH.o (.bss)
                  200048bc    00000001                                      : ll_sleep.o (.bss)
                  200048bd    00000001                                      : sm_task.o (.bss)

.TI.bound:mbIntCbackTable 
*          0    20004fec    00000010     UNINITIALIZED
                  20004fec    00000010     mb_PATCH.obj (.TI.bound:mbIntCbackTable)

MODULE SUMMARY

       Module                      code    ro data   rw data
       ------                      ----    -------   -------
    .\HAL\Common\
       hal_assert.obj              2       0         0      
    +--+---------------------------+-------+---------+---------+
       Total:                      2       0         0      
                                                            
    .\HAL\Target\CC2650\Drivers\
       hal_trng_wrapper.obj        116     0         4      
    +--+---------------------------+-------+---------+---------+
       Total:                      116     0         4      
                                                            
    .\HAL\Target\CC2650\_common\
       mb_PATCH.obj                988     0         16     
    +--+---------------------------+-------+---------+---------+
       Total:                      988     0         16     
                                                            
    .\ICallBLE\
       bleDispatch.obj             2212    0         60     
    +--+---------------------------+-------+---------+---------+
       Total:                      2212    0         60     
                                                            
    .\OSAL\
       OSAL.obj                    1884    0         48     
       osal_cbtimer.obj            508     0         124    
       OSAL_Timers.obj             588     0         8      
       osal_bufmgr.obj             212     0         4      
       OSAL_PwrMgr.obj             136     0         4      
       OSAL_MemoryICall.obj        72      0         0      
       OSAL_Clock.obj              0       0         8      
       osal_snv_wrapper.obj        8       0         0      
    +--+---------------------------+-------+---------+---------+
       Total:                      3408    0         196    
                                                            
    .\PROFILES\
       gattservapp_util.obj        198     0         0      
    +--+---------------------------+-------+---------+---------+
       Total:                      198     0         0      
                                                            
    .\Startup\
       ROM_Init.obj                54      1636      0      
       ICall_startup.obj           500     0         12     
       CommonROM_Init.obj          0       268       0      
       OSAL_ICallBle.obj           56      36        0      
    +--+---------------------------+-------+---------+---------+
       Total:                      610     1940      12     
                                                            
    .\TOOLS\
       OnBoard.obj                 2       0         0      
    +--+---------------------------+-------+---------+---------+
       Total:                      2       0         0      
                                                            
    C:\Users\aleal\AppData\Local\Temp\
       277002                      0       0         4      
    +--+---------------------------+-------+---------+---------+
       Total:                      0       0         4      
                                                            
    C:\ti\tirex-content\simplelink\ble_cc26xx_2_01_00_44423_cloud\Projects\common\BLE_ROM_Releases\04242014\
       ble_rom_PATCH.symbols       928     0         0      
    +--+---------------------------+-------+---------+---------+
       Total:                      928     0         0      
                                                            
    C:/ti/tirex-content/simplelink/ble_cc26xx_2_01_00_44423_cloud/Projects/ble/Libraries/CC26xx/IAR/CC2640/bin/CC2640_BLE_peri_HF_CF_FlashROM.a
       ll_common_PATCH.o           4288    0         13     
       gattservapp.o               4144    8         114    
       ll_PATCH.o                  4032    2         28     
       l2cap_util.o                3796    0         2      
       gatt_server.o               2636    0         13     
       ll_slaveEndCauses_PATCH.o   2366    0         2      
       gap_linkmgr.o               2268    0         32     
       sm_pairing.o                1884    0         12     
       ll_sleep.o                  1748    0         85     
       sm_mgr.o                    1800    0         4      
       gap_peridevmgr.o            1692    0         30     
       ll_config.o                 1560    92        16     
       att_util.o                  1456    0         0      
       ble_PATCH.o                 1406    0         8      
       l2cap_task.o                1328    0         70     
       sm_rsppairing.o             1368    0         12     
       ll_isr.o                    1200    0         0      
       ll_advEndCauses_PATCH.o     1070    0         0      
       l2cap_if.o                  1020    0         1      
       hci_event_PATCH.o           988     0         16     
       gap_configmgr.o             856     0         124    
       gapgattserver.o             776     8         155    
       smp.o                       922     0         0      
       hci_PATCH.o                 892     0         0      
       gatt_task.o                 764     0         11     
       linkdb.o                    660     0         56     
       gap_task.o                  652     0         12     
       att_server.o                492     0         4      
       gatt_uuid.o                 318     0         0      
       ll_scheduler_PATCH.o        312     0         0      
       gap_perilinkmgr.o           268     0         4      
       sm_task.o                   260     0         1      
       hci_data_PATCH.o            168     0         0      
       gap_devmgr.o                130     0         8      
    +--+---------------------------+-------+---------+---------+
       Total:                      49520   110       833    
                                                            
    C:/ti/tirex-content/simplelink/ble_cc26xx_2_01_00_44423_cloud/Projects/ble/Libraries/CC26xx/IAR/Common/bin/CC2640_BLE_HCI_TL_None_v41.a
       hci_tl.o                    168     0         6      
    +--+---------------------------+-------+---------+---------+
       Total:                      168     0         6      
                                                            
    C:/ti/tirex-content/tirtos_simplelink_2_13_00_06/products/cc26xxware_2_21_01_15600/driverlib/bin/ccs/driverlib.lib
       interrupt.obj               240     0         0      
       cpu.obj                     24      0         0      
    +--+---------------------------+-------+---------+---------+
       Total:                      264     0         0      
                                                            
    C:\ti\ccsv6\tools\compiler\ti-cgt-arm_16.9.0.LTS\lib\rtsv7M3_T_le_eabi.lib
       ull_div_t2.obj              500     0         0      
       memcpy_t2.obj               156     0         0      
       memset_t2.obj               122     0         0      
       autoinit.obj                112     0         0      
       copy_decompress_lzss.obj    104     0         0      
       cpy_tbl.obj                 76      0         0      
       ll_mul_t2.obj               24      0         0      
       copy_decompress_none.obj    14      0         0      
       copy_zero_init.obj          12      0         0      
       startup.obj                 2       0         0      
    +--+---------------------------+-------+---------+---------+
       Total:                      1122    0         0      
                                                            
       Linker Generated:           0       296       0      
    +--+---------------------------+-------+---------+---------+
       Grand Total:                59538   2346      1131   


LINKER GENERATED COPY TABLES

__TI_cinit_table @ 0001e1b0 records: 3, size/record: 8, table size: 24
	.data: load addr=0001e0a0, load size=000000f4 bytes, run addr=20004460, run size=000002dd bytes, compression=lzss
	.TI.bound:mbIntCbackTable: load addr=0001e1a0, load size=00000008 bytes, run addr=20004fec, run size=00000010 bytes, compression=zero_init
	.bss: load addr=0001e1a8, load size=00000008 bytes, run addr=20004740, run size=0000017e bytes, compression=zero_init


LINKER GENERATED HANDLER TABLE

__TI_handler_table @ 0001e194 records: 3, size/record: 4, table size: 12
	index: 0, handler: __TI_decompress_lzss
	index: 1, handler: __TI_decompress_none
	index: 2, handler: __TI_zero_init


FAR CALL TRAMPOLINES

callee name               trampoline name
   callee addr  tramp addr   call addr  call info
--------------  -----------  ---------  ----------------
LL_CtrlToHostFlowControl  $Tramp$TT$L$PI$$LL_CtrlToHostFlowControl
   100058d5     0001c1dc     0001c156   CC2640_BLE_peri_HF_CF_FlashROM.a : hci_data_PATCH.o (.text)
LL_PseudoRand             $Tramp$TT$L$PI$$LL_PseudoRand
   10005801     0001d4ac     0001d4a2   OSAL.obj (.text:osal_rand)
HCI_LE_SetRandomAddressCmd  $Tramp$TT$L$PI$$HCI_LE_SetRandomAddressCmd
   10009849     0001d50c     0001a74c   CC2640_BLE_peri_HF_CF_FlashROM.a : gap_configmgr.o (.text)
LL_ReadLocalVersionInfo   $Tramp$TT$L$PI$$LL_ReadLocalVersionInfo
   1000589d     0001d514     0001a4b4   CC2640_BLE_peri_HF_CF_FlashROM.a : hci_PATCH.o (.text)
LL_EXT_ResetSystem        $Tramp$TT$L$PI$$LL_EXT_ResetSystem
   100070d5     0001d51c     0001a42e   CC2640_BLE_peri_HF_CF_FlashROM.a : hci_PATCH.o (.text)
HCI_CommandStatusEvent    $Tramp$TT$L$PI$$HCI_CommandStatusEvent
   10008ba1     0001d524     0001a38e   CC2640_BLE_peri_HF_CF_FlashROM.a : hci_PATCH.o (.text)
                             0001a410                                    : hci_PATCH.o (.text)
HCI_CommandCompleteEvent  $Tramp$TT$L$PI$$HCI_CommandCompleteEvent
   10008add     0001d52c     0001a232   CC2640_BLE_peri_HF_CF_FlashROM.a : hci_PATCH.o (.text)
                             0001a2f2                                    : hci_PATCH.o (.text)
                             0001a320                                    : hci_PATCH.o (.text)
                             0001a354                                    : hci_PATCH.o (.text)
                             0001a3a4                                    : hci_PATCH.o (.text)
                             0001a4f6                                    : hci_PATCH.o (.text)
HCI_SendCommandCompleteEvent  $Tramp$TT$L$PI$$HCI_SendCommandCompleteEvent
   10008c81     0001d534     00019e08   CC2640_BLE_peri_HF_CF_FlashROM.a : hci_event_PATCH.o (.text)
HCI_HostNumCompletedPktCmd  $Tramp$TT$L$PI$$HCI_HostNumCompletedPktCmd
   1000965d     0001d53c     000199ea   CC2640_BLE_peri_HF_CF_FlashROM.a : l2cap_if.o (.text)
HCI_HostBufferSizeCmd     $Tramp$TT$L$PI$$HCI_HostBufferSizeCmd
   10009631     0001d544     000199cc   CC2640_BLE_peri_HF_CF_FlashROM.a : l2cap_if.o (.text)
HCI_SetControllerToHostFlowCtrlCmd  $Tramp$TT$L$PI$$HCI_SetControllerToHostFlowCtrlCmd
   100095f5     0001d54c     000199b4   CC2640_BLE_peri_HF_CF_FlashROM.a : l2cap_if.o (.text)
                             000199d6                                    : l2cap_if.o (.text)
llCalcScaFactor           $Tramp$TT$L$PI$$llCalcScaFactor
   1000d94d     0001d554     0001936a   CC2640_BLE_peri_HF_CF_FlashROM.a : ll_advEndCauses_PATCH.o (.text)
LL_ENC_Decrypt            $Tramp$TT$L$PI$$LL_ENC_Decrypt
   1000b9dd     0001d55c     00019048   CC2640_BLE_peri_HF_CF_FlashROM.a : ll_isr.o (.text)
HCI_LE_LtkReqNegReplyCmd  $Tramp$TT$L$PI$$HCI_LE_LtkReqNegReplyCmd
   10009be1     0001d564     000183be   CC2640_BLE_peri_HF_CF_FlashROM.a : sm_rsppairing.o (.text)
HCI_LE_LtkReqReplyCmd     $Tramp$TT$L$PI$$HCI_LE_LtkReqReplyCmd
   10009bc5     0001d56c     000183a4   CC2640_BLE_peri_HF_CF_FlashROM.a : sm_rsppairing.o (.text)
llGetNumTxDataEntries     $Tramp$TT$L$PI$$llGetNumTxDataEntries
   1000b009     0001d574     00018218   CC2640_BLE_peri_HF_CF_FlashROM.a : ble_PATCH.o (.text)
LL_ENC_GenDeviceIV        $Tramp$TT$L$PI$$LL_ENC_GenDeviceIV
   1000b555     0001d57c     00017f1c   CC2640_BLE_peri_HF_CF_FlashROM.a : ble_PATCH.o (.text)
LL_ENC_GenDeviceSKD       $Tramp$TT$L$PI$$LL_ENC_GenDeviceSKD
   1000b541     0001d584     00017f14   CC2640_BLE_peri_HF_CF_FlashROM.a : ble_PATCH.o (.text)
LL_ENC_ReverseBytes       $Tramp$TT$L$PI$$LL_ENC_ReverseBytes
   1000b4ed     0001d58c     00017ef6   CC2640_BLE_peri_HF_CF_FlashROM.a : ble_PATCH.o (.text)
                             00017f0c                                    : ble_PATCH.o (.text)
llMemCopySrc              $Tramp$TT$L$PI$$llMemCopySrc
   100089d9     0001d594     00017de2   CC2640_BLE_peri_HF_CF_FlashROM.a : ble_PATCH.o (.text)
                             00017dee                                    : ble_PATCH.o (.text)
                             00017dfa                                    : ble_PATCH.o (.text)
                             00017e06                                    : ble_PATCH.o (.text)
                             00017e2a                                    : ble_PATCH.o (.text)
                             00017e6e                                    : ble_PATCH.o (.text)
                             00017e7a                                    : ble_PATCH.o (.text)
                             00017ed2                                    : ble_PATCH.o (.text)
                             00017ede                                    : ble_PATCH.o (.text)
                             00017eec                                    : ble_PATCH.o (.text)
                             00017f04                                    : ble_PATCH.o (.text)
                             00017fb4                                    : ble_PATCH.o (.text)
                             00017fc0                                    : ble_PATCH.o (.text)
HCI_LE_SetAdvParamCmd     $Tramp$TT$L$PI$$HCI_LE_SetAdvParamCmd
   1000986d     0001d59c     00016e42   CC2640_BLE_peri_HF_CF_FlashROM.a : gap_peridevmgr.o (.text)
HCI_LE_SetAdvEnableCmd    $Tramp$TT$L$PI$$HCI_LE_SetAdvEnableCmd
   100098d9     0001d5a4     00016c64   CC2640_BLE_peri_HF_CF_FlashROM.a : gap_peridevmgr.o (.text)
                             00016e60                                    : gap_peridevmgr.o (.text)
HCI_LE_SetScanRspDataCmd  $Tramp$TT$L$PI$$HCI_LE_SetScanRspDataCmd
   100098bd     0001d5ac     00016c14   CC2640_BLE_peri_HF_CF_FlashROM.a : gap_peridevmgr.o (.text)
                             00017102                                    : gap_peridevmgr.o (.text)
HCI_LE_SetAdvDataCmd      $Tramp$TT$L$PI$$HCI_LE_SetAdvDataCmd
   100098a1     0001d5b4     00016c0a   CC2640_BLE_peri_HF_CF_FlashROM.a : gap_peridevmgr.o (.text)
                             000170f8                                    : gap_peridevmgr.o (.text)
llPatchCM0                $Tramp$TT$L$PI$$llPatchCM0
   1000adb1     0001d5bc     000165ec   CC2640_BLE_peri_HF_CF_FlashROM.a : ll_sleep.o (.text)
LL_Encrypt                $Tramp$TT$L$PI$$LL_Encrypt
   100057d5     0001d5c4     000160cc   CC2640_BLE_peri_HF_CF_FlashROM.a : sm_mgr.o (.text)
HCI_LE_RandCmd            $Tramp$TT$L$PI$$HCI_LE_RandCmd
   10009b51     0001d5cc     00015d3a   CC2640_BLE_peri_HF_CF_FlashROM.a : sm_mgr.o (.text)
                             00015e32                                    : sm_mgr.o (.text)
HCI_ReadRemoteVersionInfoCmd  $Tramp$TT$L$PI$$HCI_ReadRemoteVersionInfoCmd
   10009541     0001d5d4     000155a0   bleDispatch.obj (.text:bleDispatch_ProcessEvent)
HCI_SetEventMaskCmd       $Tramp$TT$L$PI$$HCI_SetEventMaskCmd
   10009571     0001d5dc     00015598   bleDispatch.obj (.text:bleDispatch_ProcessEvent)
HCI_ReadTransmitPowerLevelCmd  $Tramp$TT$L$PI$$HCI_ReadTransmitPowerLevelCmd
   100095d1     0001d5e4     0001558a   bleDispatch.obj (.text:bleDispatch_ProcessEvent)
HCI_ReadLocalSupportedFeaturesCmd  $Tramp$TT$L$PI$$HCI_ReadLocalSupportedFeaturesCmd
   1000973d     0001d5ec     0001556c   bleDispatch.obj (.text:bleDispatch_ProcessEvent)
HCI_ReadBDADDRCmd         $Tramp$TT$L$PI$$HCI_ReadBDADDRCmd
   10009765     0001d5f4     00015566   bleDispatch.obj (.text:bleDispatch_ProcessEvent)
                             0001a588   CC2640_BLE_peri_HF_CF_FlashROM.a : gap_configmgr.o (.text)
HCI_ReadRssiCmd           $Tramp$TT$L$PI$$HCI_ReadRssiCmd
   1000978d     0001d5fc     00015560   bleDispatch.obj (.text:bleDispatch_ProcessEvent)
HCI_LE_ReadLocalSupportedFeaturesCmd  $Tramp$TT$L$PI$$HCI_LE_ReadLocalSupportedFeaturesCmd
   10009829     0001d604     00015550   bleDispatch.obj (.text:bleDispatch_ProcessEvent)
HCI_LE_ReadAdvChanTxPowerCmd  $Tramp$TT$L$PI$$HCI_LE_ReadAdvChanTxPowerCmd
   100098f5     0001d60c     0001554a   bleDispatch.obj (.text:bleDispatch_ProcessEvent)
HCI_LE_ReadWhiteListSizeCmd  $Tramp$TT$L$PI$$HCI_LE_ReadWhiteListSizeCmd
   100099c9     0001d614     00015544   bleDispatch.obj (.text:bleDispatch_ProcessEvent)
HCI_LE_ClearWhiteListCmd  $Tramp$TT$L$PI$$HCI_LE_ClearWhiteListCmd
   100099f9     0001d61c     0001553e   bleDispatch.obj (.text:bleDispatch_ProcessEvent)
HCI_LE_AddWhiteListCmd    $Tramp$TT$L$PI$$HCI_LE_AddWhiteListCmd
   10009a15     0001d624     00015538   bleDispatch.obj (.text:bleDispatch_ProcessEvent)
HCI_LE_RemoveWhiteListCmd  $Tramp$TT$L$PI$$HCI_LE_RemoveWhiteListCmd
   10009a31     0001d62c     0001552e   bleDispatch.obj (.text:bleDispatch_ProcessEvent)
HCI_LE_ReadChannelMapCmd  $Tramp$TT$L$PI$$HCI_LE_ReadChannelMapCmd
   10009aa1     0001d634     00015524   bleDispatch.obj (.text:bleDispatch_ProcessEvent)
HCI_LE_EncryptCmd         $Tramp$TT$L$PI$$HCI_LE_EncryptCmd
   10009af5     0001d63c     00015514   bleDispatch.obj (.text:bleDispatch_ProcessEvent)
HCI_LE_ReadSupportedStatesCmd  $Tramp$TT$L$PI$$HCI_LE_ReadSupportedStatesCmd
   10009c15     0001d644     0001550a   bleDispatch.obj (.text:bleDispatch_ProcessEvent)
HCI_LE_TestEndCmd         $Tramp$TT$L$PI$$HCI_LE_TestEndCmd
   10009c8d     0001d64c     000154f0   bleDispatch.obj (.text:bleDispatch_ProcessEvent)
HCI_EXT_SetTxPowerCmd     $Tramp$TT$L$PI$$HCI_EXT_SetTxPowerCmd
   10009d09     0001d654     000154ea   bleDispatch.obj (.text:bleDispatch_ProcessEvent)
HCI_EXT_OnePktPerEvtCmd   $Tramp$TT$L$PI$$HCI_EXT_OnePktPerEvtCmd
   10009d45     0001d65c     000154e2   bleDispatch.obj (.text:bleDispatch_ProcessEvent)
HCI_EXT_DecryptCmd        $Tramp$TT$L$PI$$HCI_EXT_DecryptCmd
   10009dd1     0001d664     000154da   bleDispatch.obj (.text:bleDispatch_ProcessEvent)
HCI_EXT_SetLocalSupportedFeaturesCmd  $Tramp$TT$L$PI$$HCI_EXT_SetLocalSupportedFeaturesCmd
   10009e2d     0001d66c     000154d0   bleDispatch.obj (.text:bleDispatch_ProcessEvent)
HCI_EXT_SetFastTxResponseTimeCmd  $Tramp$TT$L$PI$$HCI_EXT_SetFastTxResponseTimeCmd
   10009e4d     0001d674     000154c8   bleDispatch.obj (.text:bleDispatch_ProcessEvent)
HCI_EXT_ModemTestTxCmd    $Tramp$TT$L$PI$$HCI_EXT_ModemTestTxCmd
   10009e8d     0001d67c     000154c0   bleDispatch.obj (.text:bleDispatch_ProcessEvent)
HCI_EXT_ModemHopTestTxCmd  $Tramp$TT$L$PI$$HCI_EXT_ModemHopTestTxCmd
   10009ead     0001d684     000154b6   bleDispatch.obj (.text:bleDispatch_ProcessEvent)
HCI_EXT_ModemTestRxCmd    $Tramp$TT$L$PI$$HCI_EXT_ModemTestRxCmd
   10009ecd     0001d68c     000154b0   bleDispatch.obj (.text:bleDispatch_ProcessEvent)
HCI_EXT_EndModemTestCmd   $Tramp$TT$L$PI$$HCI_EXT_EndModemTestCmd
   10009eed     0001d694     000154a8   bleDispatch.obj (.text:bleDispatch_ProcessEvent)
HCI_EXT_SetBDADDRCmd      $Tramp$TT$L$PI$$HCI_EXT_SetBDADDRCmd
   10009f0d     0001d69c     000154a2   bleDispatch.obj (.text:bleDispatch_ProcessEvent)
HCI_EXT_SetSCACmd         $Tramp$TT$L$PI$$HCI_EXT_SetSCACmd
   10009f49     0001d6a4     0001549a   bleDispatch.obj (.text:bleDispatch_ProcessEvent)
HCI_EXT_EnablePTMCmd      $Tramp$TT$L$PI$$HCI_EXT_EnablePTMCmd
   10009f69     0001d6ac     00015492   bleDispatch.obj (.text:bleDispatch_ProcessEvent)
HCI_EXT_SetMaxDtmTxPowerCmd  $Tramp$TT$L$PI$$HCI_EXT_SetMaxDtmTxPowerCmd
   10009fd1     0001d6b4     0001548c   bleDispatch.obj (.text:bleDispatch_ProcessEvent)
HCI_EXT_DisconnectImmedCmd  $Tramp$TT$L$PI$$HCI_EXT_DisconnectImmedCmd
   1000a011     0001d6bc     00015484   bleDispatch.obj (.text:bleDispatch_ProcessEvent)
HCI_EXT_PacketErrorRateCmd  $Tramp$TT$L$PI$$HCI_EXT_PacketErrorRateCmd
   1000a031     0001d6c4     0001547c   bleDispatch.obj (.text:bleDispatch_ProcessEvent)
HCI_EXT_PERbyChanCmd      $Tramp$TT$L$PI$$HCI_EXT_PERbyChanCmd
   1000a075     0001d6cc     00015472   bleDispatch.obj (.text:bleDispatch_ProcessEvent)
HCI_EXT_AdvEventNoticeCmd  $Tramp$TT$L$PI$$HCI_EXT_AdvEventNoticeCmd
   1000a0f1     0001d6d4     00015468   bleDispatch.obj (.text:bleDispatch_ProcessEvent)
HCI_EXT_SetSlaveLatencyOverrideCmd  $Tramp$TT$L$PI$$HCI_EXT_SetSlaveLatencyOverrideCmd
   10009e6d     0001d6dc     00015452   bleDispatch.obj (.text:bleDispatch_ProcessEvent)
HCI_EXT_BuildRevisionCmd  $Tramp$TT$L$PI$$HCI_EXT_BuildRevisionCmd
   1000a109     0001d6e4     0001544a   bleDispatch.obj (.text:bleDispatch_ProcessEvent)
HCI_EXT_NumComplPktsLimitCmd  $Tramp$TT$L$PI$$HCI_EXT_NumComplPktsLimitCmd
   1000a1b5     0001d6ec     00015430   bleDispatch.obj (.text:bleDispatch_ProcessEvent)
HCI_DisconnectCmd         $Tramp$TT$L$PI$$HCI_DisconnectCmd
   10009525     0001d6f4     0001456e   CC2640_BLE_peri_HF_CF_FlashROM.a : gap_linkmgr.o (.text)
                             00014a78                                    : gap_linkmgr.o (.text)
llMoveTempTxDataEntries   $Tramp$TT$L$PI$$llMoveTempTxDataEntries
   1000afa1     0001d6fc     000144fe   CC2640_BLE_peri_HF_CF_FlashROM.a : ll_slaveEndCauses_PATCH.o (.text)
llSetupVersionIndReq      $Tramp$TT$L$PI$$llSetupVersionIndReq
   10007f29     0001d704     000143c8   CC2640_BLE_peri_HF_CF_FlashROM.a : ll_slaveEndCauses_PATCH.o (.text)
LL_ReadRemoteVersionInfoCback  $Tramp$TT$L$PI$$LL_ReadRemoteVersionInfoCback
   100091e1     0001d70c     000143aa   CC2640_BLE_peri_HF_CF_FlashROM.a : ll_slaveEndCauses_PATCH.o (.text)
                             000143bc                                    : ll_slaveEndCauses_PATCH.o (.text)
llSetupPauseEncRsp        $Tramp$TT$L$PI$$llSetupPauseEncRsp
   10007d55     0001d714     000142ee   CC2640_BLE_peri_HF_CF_FlashROM.a : ll_slaveEndCauses_PATCH.o (.text)
llSetupStartEncRsp        $Tramp$TT$L$PI$$llSetupStartEncRsp
   10007ca9     0001d71c     000142d4   CC2640_BLE_peri_HF_CF_FlashROM.a : ll_slaveEndCauses_PATCH.o (.text)
LL_EncChangeCback         $Tramp$TT$L$PI$$LL_EncChangeCback
   1000933d     0001d724     000142c2   CC2640_BLE_peri_HF_CF_FlashROM.a : ll_slaveEndCauses_PATCH.o (.text)
LL_EncKeyRefreshCback     $Tramp$TT$L$PI$$LL_EncKeyRefreshCback
   100093dd     0001d72c     000142a4   CC2640_BLE_peri_HF_CF_FlashROM.a : ll_slaveEndCauses_PATCH.o (.text)
LL_ENC_AES128_Encrypt     $Tramp$TT$L$PI$$LL_ENC_AES128_Encrypt
   1000b5f5     0001d734     0001425c   CC2640_BLE_peri_HF_CF_FlashROM.a : ll_slaveEndCauses_PATCH.o (.text)
llSetupStartEncReq        $Tramp$TT$L$PI$$llSetupStartEncReq
   10007c55     0001d73c     00014234   CC2640_BLE_peri_HF_CF_FlashROM.a : ll_slaveEndCauses_PATCH.o (.text)
llSetupEncRsp             $Tramp$TT$L$PI$$llSetupEncRsp
   10007b95     0001d744     000141fe   CC2640_BLE_peri_HF_CF_FlashROM.a : ll_slaveEndCauses_PATCH.o (.text)
LL_EncLtkReqCback         $Tramp$TT$L$PI$$LL_EncLtkReqCback
   1000925d     0001d74c     000141f6   CC2640_BLE_peri_HF_CF_FlashROM.a : ll_slaveEndCauses_PATCH.o (.text)
llSetupUnknownRsp         $Tramp$TT$L$PI$$llSetupUnknownRsp
   10008069     0001d754     00014150   CC2640_BLE_peri_HF_CF_FlashROM.a : ll_slaveEndCauses_PATCH.o (.text)
                             00018102                                    : ble_PATCH.o (.text)
llEventInRange            $Tramp$TT$L$PI$$llEventInRange
   100086f1     0001d75c     00013e3c   CC2640_BLE_peri_HF_CF_FlashROM.a : ll_slaveEndCauses_PATCH.o (.text)
                             00013e5c                                    : ll_slaveEndCauses_PATCH.o (.text)
llCheckForLstoDuringSL    $Tramp$TT$L$PI$$llCheckForLstoDuringSL
   1000c1b5     0001d764     00013e1a   CC2640_BLE_peri_HF_CF_FlashROM.a : ll_slaveEndCauses_PATCH.o (.text)
llConnTerminate           $Tramp$TT$L$PI$$llConnTerminate
   10008631     0001d76c     00013d42   CC2640_BLE_peri_HF_CF_FlashROM.a : ll_slaveEndCauses_PATCH.o (.text)
                             000140ca                                    : ll_slaveEndCauses_PATCH.o (.text)
                             0001445a                                    : ll_slaveEndCauses_PATCH.o (.text)
                             00019488                                    : ll_advEndCauses_PATCH.o (.text)
HCI_SendDataPkt           $Tramp$TT$L$PI$$HCI_SendDataPkt
   100094e9     0001d774     000127c8   CC2640_BLE_peri_HF_CF_FlashROM.a : l2cap_util.o (.text)
llGetNumTasks             $Tramp$TT$L$PI$$llGetNumTasks
   1000ace1     0001d77c     00012130   CC2640_BLE_peri_HF_CF_FlashROM.a : ll_PATCH.o (.text)
llScheduler               $Tramp$TT$L$PI$$llScheduler
   1000a335     0001d784     0001211a   CC2640_BLE_peri_HF_CF_FlashROM.a : ll_PATCH.o (.text)
                             00012170                                    : ll_PATCH.o (.text)
                             00013db8                                    : ll_slaveEndCauses_PATCH.o (.text)
                             000195e0                                    : ll_advEndCauses_PATCH.o (.text)
llSetupAdv                $Tramp$TT$L$PI$$llSetupAdv
   100073e5     0001d78c     000120de   CC2640_BLE_peri_HF_CF_FlashROM.a : ll_PATCH.o (.text)
LL_DirectTestEndDoneCback  $Tramp$TT$L$PI$$LL_DirectTestEndDoneCback
   10009471     0001d794     00011e92   CC2640_BLE_peri_HF_CF_FlashROM.a : ll_PATCH.o (.text)
llRfStartFS               $Tramp$TT$L$PI$$llRfStartFS
   10007269     0001d79c     00011c08   CC2640_BLE_peri_HF_CF_FlashROM.a : ll_PATCH.o (.text)
HCI_DataBufferOverflowEvent  $Tramp$TT$L$PI$$HCI_DataBufferOverflowEvent
   10008a2d     0001d7a4     00011b6c   CC2640_BLE_peri_HF_CF_FlashROM.a : ll_PATCH.o (.text)
llReleaseAllConnId        $Tramp$TT$L$PI$$llReleaseAllConnId
   10008461     0001d7ac     000117f6   CC2640_BLE_peri_HF_CF_FlashROM.a : ll_PATCH.o (.text)
LL_ClearWhiteList         $Tramp$TT$L$PI$$LL_ClearWhiteList
   10005719     0001d7b4     00011792   CC2640_BLE_peri_HF_CF_FlashROM.a : ll_PATCH.o (.text)
LL_ENC_Init               $Tramp$TT$L$PI$$LL_ENC_Init
   1000b4c9     0001d7bc     0001178e   CC2640_BLE_peri_HF_CF_FlashROM.a : ll_PATCH.o (.text)
                             00016afe                                    : ll_sleep.o (.text)
WL_Init                   $Tramp$TT$L$PI$$WL_Init
   1000d189     0001d7c4     0001178a   CC2640_BLE_peri_HF_CF_FlashROM.a : ll_PATCH.o (.text)
LL_ConnectionCompleteCback  $Tramp$TT$L$PI$$LL_ConnectionCompleteCback
   10008ead     0001d7cc     00011672   CC2640_BLE_peri_HF_CF_FlashROM.a : ll_PATCH.o (.text)
                             000116c2                                    : ll_PATCH.o (.text)
                             000116d6                                    : ll_PATCH.o (.text)
LL_ENC_GenerateTrueRandNum  $Tramp$TT$L$PI$$LL_ENC_GenerateTrueRandNum
   1000b51d     0001d7d4     000115f6   CC2640_BLE_peri_HF_CF_FlashROM.a : ll_PATCH.o (.text)
llInitRAT                 $Tramp$TT$L$PI$$llInitRAT
   1000d8b5     0001d7dc     000115d2   CC2640_BLE_peri_HF_CF_FlashROM.a : ll_PATCH.o (.text)
llSetupRfHal              $Tramp$TT$L$PI$$llSetupRfHal
   1000ad6d     0001d7e4     000115a0   CC2640_BLE_peri_HF_CF_FlashROM.a : ll_PATCH.o (.text)
llSetupMailbox            $Tramp$TT$L$PI$$llSetupMailbox
   1000ad21     0001d7ec     0001159c   CC2640_BLE_peri_HF_CF_FlashROM.a : ll_PATCH.o (.text)
                             0001176c                                    : ll_PATCH.o (.text)
                             00011e96                                    : ll_PATCH.o (.text)
llResetRadio              $Tramp$TT$L$PI$$llResetRadio
   10007201     0001d7f4     0001158e   CC2640_BLE_peri_HF_CF_FlashROM.a : ll_PATCH.o (.text)
                             00018da6                                    : ll_isr.o (.text)
llSetupRejectInd          $Tramp$TT$L$PI$$llSetupRejectInd
   10007df5     0001d7fc     000101ae   CC2640_BLE_peri_HF_CF_FlashROM.a : ll_common_PATCH.o (.text)
                             00014322                                    : ll_slaveEndCauses_PATCH.o (.text)
WL_FindEntry              $Tramp$TT$L$PI$$WL_FindEntry
   1000d26d     0001d804     00010176   CC2640_BLE_peri_HF_CF_FlashROM.a : ll_common_PATCH.o (.text)
llEnqueueCtrlPkt          $Tramp$TT$L$PI$$llEnqueueCtrlPkt
   100080bd     0001d80c     0000fee4   CC2640_BLE_peri_HF_CF_FlashROM.a : ll_common_PATCH.o (.text)
                             00011a58                                    : ll_PATCH.o (.text)
                             0001200c                                    : ll_PATCH.o (.text)
                             00017f56                                    : ble_PATCH.o (.text)
                             00018184                                    : ble_PATCH.o (.text)
                             000181ce                                    : ble_PATCH.o (.text)
LL_ConnActive             $Tramp$TT$L$PI$$LL_ConnActive
   1000678d     0001d814     0000feb4   CC2640_BLE_peri_HF_CF_FlashROM.a : ll_common_PATCH.o (.text)
                             000118b6                                    : ll_PATCH.o (.text)
                             000118fe                                    : ll_PATCH.o (.text)
                             00011920                                    : ll_PATCH.o (.text)
                             0001199a                                    : ll_PATCH.o (.text)
                             000119e4                                    : ll_PATCH.o (.text)
                             00011a1a                                    : ll_PATCH.o (.text)
                             00011b3c                                    : ll_PATCH.o (.text)
                             00011eb4                                    : ll_PATCH.o (.text)
                             00011ef2                                    : ll_PATCH.o (.text)
                             00011f92                                    : ll_PATCH.o (.text)
                             000121cc                                    : ll_PATCH.o (.text)
llHaltRadio               $Tramp$TT$L$PI$$llHaltRadio
   1000720d     0001d81c     0000fe50   CC2640_BLE_peri_HF_CF_FlashROM.a : ll_common_PATCH.o (.text)
                             0001175e                                    : ll_PATCH.o (.text)
                             00011e3c                                    : ll_PATCH.o (.text)
                             0001214a                                    : ll_PATCH.o (.text)
llGetCurrentTask          $Tramp$TT$L$PI$$llGetCurrentTask
   1000ac3d     0001d824     0000fe46   CC2640_BLE_peri_HF_CF_FlashROM.a : ll_common_PATCH.o (.text)
                             00011640                                    : ll_PATCH.o (.text)
                             00012138                                    : ll_PATCH.o (.text)
                             000168e6                                    : ll_sleep.o (.text)
                             00016a2a                                    : ll_sleep.o (.text)
                             00016a3e                                    : ll_sleep.o (.text)
LL_RX_bm_alloc            $Tramp$TT$L$PI$$LL_RX_bm_alloc
   1000556d     0001d82c     0000fd8c   CC2640_BLE_peri_HF_CF_FlashROM.a : ll_common_PATCH.o (.text)
                             0001828e                                    : ble_PATCH.o (.text)
                             0001909c                                    : ll_isr.o (.text)
HCI_HardwareErrorEvent    $Tramp$TT$L$PI$$HCI_HardwareErrorEvent
   10008bf5     0001d834     0000fcc0   CC2640_BLE_peri_HF_CF_FlashROM.a : ll_common_PATCH.o (.text)
                             0000fdc8                                    : ll_common_PATCH.o (.text)
                             0001023a                                    : ll_common_PATCH.o (.text)
                             0001170a                                    : ll_PATCH.o (.text)
                             00011b8e                                    : ll_PATCH.o (.text)
HCI_bm_alloc              $Tramp$TT$L$PI$$HCI_bm_alloc
   100094a1     0001d83c     0000fcb4   CC2640_BLE_peri_HF_CF_FlashROM.a : ll_common_PATCH.o (.text)
                             0001315e                                    : l2cap_util.o (.text)
llWriteTxData             $Tramp$TT$L$PI$$llWriteTxData
   100087c9     0001d844     0000fc9e   CC2640_BLE_peri_HF_CF_FlashROM.a : ll_common_PATCH.o (.text)
                             00011b9e                                    : ll_PATCH.o (.text)
llGetCurrentTime          $Tramp$TT$L$PI$$llGetCurrentTime
   1000d8c1     0001d84c     0000fa5e   CC2640_BLE_peri_HF_CF_FlashROM.a : ll_common_PATCH.o (.text)
                             0000fe1c                                    : ll_common_PATCH.o (.text)
                             000115c4                                    : ll_PATCH.o (.text)
                             000115ca                                    : ll_PATCH.o (.text)
                             000120fa                                    : ll_PATCH.o (.text)
                             0001656e                                    : ll_sleep.o (.text)
                             0001677a                                    : ll_sleep.o (.text)
                             000168f4                                    : ll_sleep.o (.text)
                             0001697a                                    : ll_sleep.o (.text)
llConvertCtrlProcTimeoutToEvent  $Tramp$TT$L$PI$$llConvertCtrlProcTimeoutToEvent
   10008741     0001d854     0000f988   CC2640_BLE_peri_HF_CF_FlashROM.a : ll_common_PATCH.o (.text)
                             00013f0a                                    : ll_slaveEndCauses_PATCH.o (.text)
                             00019350                                    : ll_advEndCauses_PATCH.o (.text)
llConvertLstoToEvent      $Tramp$TT$L$PI$$llConvertLstoToEvent
   10008721     0001d85c     0000f930   CC2640_BLE_peri_HF_CF_FlashROM.a : ll_common_PATCH.o (.text)
                             00013eac                                    : ll_slaveEndCauses_PATCH.o (.text)
                             00019346                                    : ll_advEndCauses_PATCH.o (.text)
llTimeDelta               $Tramp$TT$L$PI$$llTimeDelta
   1000d8f5     0001d864     0000f8a8   CC2640_BLE_peri_HF_CF_FlashROM.a : ll_common_PATCH.o (.text)
                             0000fe5e                                    : ll_common_PATCH.o (.text)
                             00016780                                    : ll_sleep.o (.text)
                             000168fc                                    : ll_sleep.o (.text)
llTimeCompare             $Tramp$TT$L$PI$$llTimeCompare
   1000d8c9     0001d86c     0000f846   CC2640_BLE_peri_HF_CF_FlashROM.a : ll_common_PATCH.o (.text)
                             0000f898                                    : ll_common_PATCH.o (.text)
                             0000f8ec                                    : ll_common_PATCH.o (.text)
                             0000fc0e                                    : ll_common_PATCH.o (.text)
                             0000fe40                                    : ll_common_PATCH.o (.text)
llFreeTask                $Tramp$TT$L$PI$$llFreeTask
   1000abed     0001d874     0000f780   CC2640_BLE_peri_HF_CF_FlashROM.a : ll_common_PATCH.o (.text)
                             00012160                                    : ll_PATCH.o (.text)
                             00019248                                    : ll_advEndCauses_PATCH.o (.text)
llReleaseConnId           $Tramp$TT$L$PI$$llReleaseConnId
   10008429     0001d87c     0000f77a   CC2640_BLE_peri_HF_CF_FlashROM.a : ll_common_PATCH.o (.text)
LL_ENC_Encrypt            $Tramp$TT$L$PI$$LL_ENC_Encrypt
   1000b965     0001d884     0000f4ba   CC2640_BLE_peri_HF_CF_FlashROM.a : ll_common_PATCH.o (.text)
                             00010234                                    : ll_common_PATCH.o (.text)
LL_TX_bm_alloc            $Tramp$TT$L$PI$$LL_TX_bm_alloc
   10005549     0001d88c     0000f3bc   CC2640_BLE_peri_HF_CF_FlashROM.a : ll_common_PATCH.o (.text)
                             0000f406                                    : ll_common_PATCH.o (.text)
                             0000f45e                                    : ll_common_PATCH.o (.text)
                             0000f494                                    : ll_common_PATCH.o (.text)
                             0000f4ea                                    : ll_common_PATCH.o (.text)
                             0000f52c                                    : ll_common_PATCH.o (.text)
                             0000f5de                                    : ll_common_PATCH.o (.text)
                             000101ce                                    : ll_common_PATCH.o (.text)
llEventDelta              $Tramp$TT$L$PI$$llEventDelta
   10008719     0001d894     0000f25e   CC2640_BLE_peri_HF_CF_FlashROM.a : ll_common_PATCH.o (.text)
                             0000f8c4                                    : ll_common_PATCH.o (.text)
                             0000fa42                                    : ll_common_PATCH.o (.text)
                             0001008c                                    : ll_common_PATCH.o (.text)
                             00013e7a                                    : ll_slaveEndCauses_PATCH.o (.text)
                             00013ec6                                    : ll_slaveEndCauses_PATCH.o (.text)

[116 trampolines]
[224 trampoline calls]


GLOBAL SYMBOLS: SORTED ALPHABETICALLY BY Name 

address   name                                  
-------   ----                                  
10014c00  A1_rw                                 
10005000  A1_rw_1                               
10019ffe  A2_rw                                 
1000dffe  A2_rw_1                               
10019ffc  A3_rw                                 
1000dffc  A3_rw_1                               
20004f2c  A4_rw                                 
200048e8  A4_rw_1                               
20004f7c  ACCX                                  
20004f80  ACCY                                  
20004f84  ACCZ                                  
10015229  ATOMICPATTERN                         
00017817  ATT_BuildErrorRsp                     
00017847  ATT_BuildExchangeMTUReq               
00017853  ATT_BuildExchangeMTURsp               
00017b67  ATT_BuildExecuteWriteReq              
000178df  ATT_BuildFindByTypeValueReq           
0001793b  ATT_BuildFindByTypeValueRsp           
00017879  ATT_BuildFindInfoReq                  
00017885  ATT_BuildFindInfoRsp                  
00017b8b  ATT_BuildHandleValueInd               
00017aed  ATT_BuildPrepareWriteReq              
00017b17  ATT_BuildPrepareWriteRsp              
00017a3b  ATT_BuildReadBlobReq                  
00017a79  ATT_BuildReadBlobRsp                  
00017ab1  ATT_BuildReadByGrpTypeRsp             
00017955  ATT_BuildReadByTypeReq                
000179c1  ATT_BuildReadByTypeRsp                
00017a8b  ATT_BuildReadMultiReq                 
00017aab  ATT_BuildReadMultiRsp                 
000179e3  ATT_BuildReadReq                      
000179ff  ATT_BuildReadRsp                      
00017a2f  ATT_BuildWriteReq                     
00017c59  ATT_CompareUUID                       
00017ca9  ATT_ConvertUUIDto128                  
00017cd1  ATT_ConvertUUIDto16                   
0001b7b7  ATT_ErrorRsp                          
0001b7c9  ATT_ExchangeMTURsp                    
0001b8fb  ATT_ExecuteWriteRsp                   
0001b811  ATT_FindByTypeValueRsp                
0001b7e1  ATT_FindInfoRsp                       
00017d39  ATT_GetMTU                            
00017d59  ATT_GetParamValue                     
0001b91d  ATT_HandleValueInd                    
0001b907  ATT_HandleValueNoti                   
00017829  ATT_ParseErrorRsp                     
00017849  ATT_ParseExchangeMTUReq               
00017863  ATT_ParseExchangeMTURsp               
00017b6f  ATT_ParseExecuteWriteReq              
00017b81  ATT_ParseExecuteWriteRsp              
000178f9  ATT_ParseFindByTypeValueReq           
00017943  ATT_ParseFindByTypeValueRsp           
0001787b  ATT_ParseFindInfoReq                  
0001789d  ATT_ParseFindInfoRsp                  
00017bcb  ATT_ParseHandleValueCfm               
00017b9f  ATT_ParseHandleValueInd               
000177bd  ATT_ParsePacket                       
00017aef  ATT_ParsePrepareWriteReq              
00017b35  ATT_ParsePrepareWriteRsp              
00017a55  ATT_ParseReadBlobReq                  
00017a7d  ATT_ParseReadBlobRsp                  
00017ac3  ATT_ParseReadByGrpTypeRsp             
00017985  ATT_ParseReadByTypeReq                
000179c3  ATT_ParseReadByTypeRsp                
00017a93  ATT_ParseReadMultiReq                 
00017aaf  ATT_ParseReadMultiRsp                 
000179e5  ATT_ParseReadReq                      
00017a03  ATT_ParseReadRsp                      
00017a05  ATT_ParseWriteReq                     
00017a31  ATT_ParseWriteRsp                     
0001b8e1  ATT_PrepareWriteRsp                   
0001b879  ATT_ReadBlobRsp                       
0001b8b3  ATT_ReadByGrpTypeRsp                  
0001b831  ATT_ReadByTypeRsp                     
0001b895  ATT_ReadMultiRsp                      
0001b85d  ATT_ReadRsp                           
0001b7b1  ATT_RegisterServer                    
00017d57  ATT_SetParamValue                     
00017d0f  ATT_UpdateMTU                         
0001b8d5  ATT_WriteRsp                          
10016c29  AddRoundKeySubBytes_Sw                
10018a19  AesCcm_authEncrypt_Sw                 
10018a35  AesCcm_decryptAuth_Sw                 
10018b09  AesCcm_getNumBlocks_Sw                
10018ac5  Aes_decrypt_Sw                        
10018a99  Aes_encrypt_Sw                        
20004f2c  COMMON_RAM_BASE_ADDR                  
10014c01  COMMON_ROM_BASE_ADDR                  
10015a6d  COPY                                  
10017959  ECC_allocWorkzone                     
10017dbd  ECC_keyGen                            
10017961  ECC_setWin                            
10017ded  ECDH_commonKey                        
10017969  ECDSA_sign                            
10017b01  ECDSA_verif                           
10015a11  EXPORTOPERAND                         
20004f78  EXPW                                  
20004f6c  EXPX                                  
20004f70  EXPY                                  
20004f74  EXPZ                                  
10016f58  FFMult2                               
10017058  FFMult3                               
10016d05  FFMult_Sw                             
10018d6c  Fill1                                 
1000d9ec  Fill1_1                               
00014637  GAP_Authenticate                      
0001476d  GAP_Bond                              
0001a5d9  GAP_ConfigDeviceAddr                  
00016c1d  GAP_EndDiscoverable                   
00016ccd  GAP_GetAdvToken                       
0001a561  GAP_GetParamValue                     
0001b13b  GAP_Init                              
00016b09  GAP_MakeDiscoverable                  
0001b217  GAP_NumActiveConnections              
0001a573  GAP_ParamsInit                        
00014721  GAP_PasscodeUpdate                    
000146ef  GAP_PasskeyUpdate                     
0001bc4d  GAP_PeriConnRegister                  
00016d11  GAP_PeriDevMgrInit                    
0001b151  GAP_ProcessEvent                      
0001b135  GAP_RegisterForMsgs                   
00016ce9  GAP_RemoveAdvToken                    
0001c565  GAP_ResolvePrivateAddr                
0001a59b  GAP_SecParamsInit                     
0001bc15  GAP_SendSlaveSecurityRequest          
00016c69  GAP_SetAdvToken                       
0001a545  GAP_SetParamValue                     
000145ef  GAP_Signable                          
000146d1  GAP_TerminateAuth                     
00014505  GAP_TerminateLinkReq                  
00016cfd  GAP_UpdateAdvTokens                   
00016baf  GAP_UpdateAdvertisingData             
0001457f  GAP_UpdateLinkParamReq                
00010515  GATTServApp_AddService                
00010539  GATTServApp_DelService                
000103bd  GATTServApp_DeregisterService         
000111fb  GATTServApp_GetParamValue             
0001045f  GATTServApp_GetParameter              
000102bd  GATTServApp_Init                      
0001cded  GATTServApp_InitCharCfg               
0001c965  GATTServApp_ProcessCCCWriteReq        
0001032b  GATTServApp_ProcessEvent              
00010f7d  GATTServApp_ReadAttr                  
0001d46d  GATTServApp_ReadCharCfg               
000102b5  GATTServApp_RegisterForMsg            
00010369  GATTServApp_RegisterService           
0001129d  GATTServApp_SendCCCUpdatedEvent       
0001121d  GATTServApp_SendServiceChangedInd     
000111f9  GATTServApp_SetParamValue             
000103ff  GATTServApp_SetParameter              
20004854  GATTServApp_TaskID                    
000111ff  GATTServApp_UpdateCharCfg             
00011171  GATTServApp_WriteAttr                 
0001abc3  GATT_AppCompletedMsg                  
00013277  GATT_DeregisterService                
00013415  GATT_FindHandle                       
000133b9  GATT_FindHandleUUID                   
0001345d  GATT_FindNextAttr                     
0001b99d  GATT_FindUUIDRec                      
00013b3d  GATT_GetNextHandle                    
000135b1  GATT_Indication                       
0001abeb  GATT_Init                             
00013179  GATT_InitServer                       
0001360b  GATT_Notification                     
0001ad55  GATT_NotifyEvent                      
0001ac09  GATT_ProcessEvent                     
0001abb1  GATT_RegisterForMsgs                  
000132b7  GATT_RegisterForReq                   
000131df  GATT_RegisterService                  
000134fd  GATT_SendRsp                          
00013347  GATT_ServiceChangedInd                
000134ed  GATT_ServiceEncKeySize                
000134e1  GATT_ServiceNumAttrs                  
0001abb7  GATT_SetHostToAppFlowCtrl             
00013b3b  GATT_SetNextHandle                    
0001ad69  GATT_UpdateMTU                        
000132bf  GATT_VerifyReadPermissions            
000132f5  GATT_VerifyWritePermissions           
0001ae15  GATT_bm_alloc                         
0001ae8d  GATT_bm_free                          
10015141  GETBIT                                
10015155  GETDIGIT                              
100151a5  GETDIGITL2R                           
0001a959  GGS_AddService                        
0001a971  GGS_DelService                        
0001a955  GGS_GetParamValue                     
0001a91d  GGS_GetParameter                      
0001a985  GGS_RegisterAppCBs                    
0001a953  GGS_SetParamValue                     
0001a89d  GGS_SetParameter                      
10008add  HCI_CommandCompleteEvent              
10008ba1  HCI_CommandStatusEvent                
10008a2d  HCI_DataBufferOverflowEvent           
10009525  HCI_DisconnectCmd                     
1000a0f1  HCI_EXT_AdvEventNoticeCmd             
1000a109  HCI_EXT_BuildRevisionCmd              
10009d79  HCI_EXT_ClkDivOnHaltCmd               
0001a46d  HCI_EXT_ConnEventNoticeCmd            
10009dad  HCI_EXT_DeclareNvUsageCmd             
10009dd1  HCI_EXT_DecryptCmd                    
0001a449  HCI_EXT_DelaySleepCmd                 
1000a011  HCI_EXT_DisconnectImmedCmd            
10009f69  HCI_EXT_EnablePTMCmd                  
10009eed  HCI_EXT_EndModemTestCmd               
1000a095  HCI_EXT_ExtendRfRangeCmd              
0001a23b  HCI_EXT_GetConnInfoCmd                
1000a0d1  HCI_EXT_HaltDuringRfCmd               
10009ff1  HCI_EXT_MapPmIoPortCmd                
10009ead  HCI_EXT_ModemHopTestTxCmd             
10009ecd  HCI_EXT_ModemTestRxCmd                
10009e8d  HCI_EXT_ModemTestTxCmd                
1000a1b5  HCI_EXT_NumComplPktsLimitCmd          
10009d45  HCI_EXT_OnePktPerEvtCmd               
1000a195  HCI_EXT_OverlappedProcessingCmd       
1000a075  HCI_EXT_PERbyChanCmd                  
1000a031  HCI_EXT_PacketErrorRateCmd            
0001a41b  HCI_EXT_ResetSystemCmd                
10009fb1  HCI_EXT_SaveFreqTuneCmd               
10009f0d  HCI_EXT_SetBDADDRCmd                  
10009e4d  HCI_EXT_SetFastTxResponseTimeCmd      
10009f81  HCI_EXT_SetFreqTuneCmd                
10009e2d  HCI_EXT_SetLocalSupportedFeaturesCmd  
10009fd1  HCI_EXT_SetMaxDtmTxPowerCmd           
10009cd5  HCI_EXT_SetRxGainCmd                  
10009f49  HCI_EXT_SetSCACmd                     
10009e6d  HCI_EXT_SetSlaveLatencyOverrideCmd    
10009d09  HCI_EXT_SetTxPowerCmd                 
0001c113  HCI_ExtTaskRegister                   
0001c101  HCI_GAPTaskRegister                   
10008bf5  HCI_HardwareErrorEvent                
10009631  HCI_HostBufferSizeCmd                 
1000965d  HCI_HostNumCompletedPktCmd            
0001c08d  HCI_Init                              
0001c107  HCI_L2CAPTaskRegister                 
10009a15  HCI_LE_AddWhiteListCmd                
100099f9  HCI_LE_ClearWhiteListCmd              
0001a3f9  HCI_LE_ConnUpdateCmd                  
1000999d  HCI_LE_CreateConnCancelCmd            
1000995d  HCI_LE_CreateConnCmd                  
10009af5  HCI_LE_EncryptCmd                     
10009be1  HCI_LE_LtkReqNegReplyCmd              
10009bc5  HCI_LE_LtkReqReplyCmd                 
10009b51  HCI_LE_RandCmd                        
100098f5  HCI_LE_ReadAdvChanTxPowerCmd          
0001a2fb  HCI_LE_ReadBufSizeCmd                 
10009aa1  HCI_LE_ReadChannelMapCmd              
10009829  HCI_LE_ReadLocalSupportedFeaturesCmd  
0001a383  HCI_LE_ReadRemoteUsedFeaturesCmd      
10009c15  HCI_LE_ReadSupportedStatesCmd         
100099c9  HCI_LE_ReadWhiteListSizeCmd           
0001a3bf  HCI_LE_ReceiverTestCmd                
0001a35b  HCI_LE_RemoteConnParamReqNegReplyCmd  
0001a329  HCI_LE_RemoteConnParamReqReplyCmd     
10009a31  HCI_LE_RemoveWhiteListCmd             
100098a1  HCI_LE_SetAdvDataCmd                  
100098d9  HCI_LE_SetAdvEnableCmd                
1000986d  HCI_LE_SetAdvParamCmd                 
0001a471  HCI_LE_SetEventMaskCmd                
10009a85  HCI_LE_SetHostChanClassificationCmd   
10009849  HCI_LE_SetRandomAddressCmd            
10009941  HCI_LE_SetScanEnableCmd               
10009915  HCI_LE_SetScanParamCmd                
100098bd  HCI_LE_SetScanRspDataCmd              
10009ba9  HCI_LE_StartEncyptCmd                 
10009c8d  HCI_LE_TestEndCmd                     
0001a3ad  HCI_LE_TransmitterTestCmd             
00019b8d  HCI_NumOfCompletedPacketsEvent        
0001c0bf  HCI_ProcessEvent                      
0001a2bd  HCI_ReadAuthPayloadTimeoutCmd         
10009765  HCI_ReadBDADDRCmd                     
0001a227  HCI_ReadLocalSupportedCommandsCmd     
1000973d  HCI_ReadLocalSupportedFeaturesCmd     
0001a4a9  HCI_ReadLocalVersionInfoCmd           
10009541  HCI_ReadRemoteVersionInfoCmd          
1000978d  HCI_ReadRssiCmd                       
100095d1  HCI_ReadTransmitPowerLevelCmd         
0001a205  HCI_ResetCmd                          
1000d7cd  HCI_ReverseBytes                      
0001c10d  HCI_SMPTaskRegister                   
10008c81  HCI_SendCommandCompleteEvent          
10008c59  HCI_SendCommandStatusEvent            
10008d31  HCI_SendControllerToHostEvent         
100094e9  HCI_SendDataPkt                       
100095f5  HCI_SetControllerToHostFlowCtrlCmd    
10009571  HCI_SetEventMaskCmd                   
0001a3d1  HCI_SetEventMaskPage2Cmd              
0001c0fb  HCI_TestAppTaskRegister               
0001a1c9  HCI_ValidConnTimeParams               
00019db3  HCI_VendorSpecifcCommandCompleteEvent 
0001a2e1  HCI_WriteAuthPayloadTimeoutCmd        
100094a1  HCI_bm_alloc                          
0001cc45  HalTRNG_GetTRNG                       
0001ce21  HalTRNG_InitTRNG                      
20004848  ICall_dispatcher                      
2000484c  ICall_enterCriticalSection            
20004850  ICall_leaveCriticalSection            
10015a35  IMPORTDATA                            
100159a9  IMPORTLENGTH                          
100159ad  IMPORTMODULUS                         
100159d1  IMPORTOPERAND                         
1001568d  INVERT                                
10016da1  InvAddRoundKey_Sw                     
10016ed5  InvMixColumns_Sw                      
10016dc9  InvRoundKey_Sw                        
10017264  InvSbox                               
10016ea1  InvShiftRows_Sw                       
10016e8d  InvSubBytes_Sw                        
100154f5  JACADD                                
0001285f  L2CAP_BuildCmdReject                  
00012a1b  L2CAP_BuildConnectReq                 
00012977  L2CAP_BuildInfoRsp                    
00012943  L2CAP_BuildParamUpdateRsp             
000197e9  L2CAP_ChannelInfo                     
00019955  L2CAP_CmdReject                       
00019977  L2CAP_ConnParamUpdateReq              
0001998f  L2CAP_ConnParamUpdateRsp              
00019873  L2CAP_ConnectReq                      
000198c9  L2CAP_ConnectRsp                      
0001972b  L2CAP_DeregisterPsm                   
000198ef  L2CAP_DisconnectReq                   
00019915  L2CAP_FlowCtrlCredit                  
000199fd  L2CAP_GetMTU                          
00013175  L2CAP_GetParamValue                   
000199db  L2CAP_HostNumCompletedPkts            
00019963  L2CAP_InfoReq                         
00018845  L2CAP_Init                            
00012a1d  L2CAP_ParseConnectReq                 
00012af7  L2CAP_ParseFlowCtrlCredit             
0001295f  L2CAP_ParseInfoReq                    
00012909  L2CAP_ParseParamUpdateReq             
000188cd  L2CAP_ProcessEvent                    
00019783  L2CAP_PsmChannels                     
00019753  L2CAP_PsmInfo                         
00019655  L2CAP_RegisterApp                     
000196e5  L2CAP_RegisterPsm                     
00019681  L2CAP_SendData                        
00019809  L2CAP_SendSDU                         
000199f1  L2CAP_SetBufSize                      
000199a1  L2CAP_SetControllerToHostFlowCtrl     
00013173  L2CAP_SetParamValue                   
00019a03  L2CAP_SetUserConfig                   
00013159  L2CAP_bm_alloc                        
20004fe8  LEN                                   
10005739  LL_AddWhiteListDevice                 
10008d81  LL_AdvReportCback                     
00019c6b  LL_AuthPayloadTimeoutExpiredCback     
10005719  LL_ClearWhiteList                     
1000678d  LL_ConnActive                         
00019a9d  LL_ConnParamUpdateCback               
00011f4d  LL_ConnUpdate                         
10008ead  LL_ConnectionCompleteCback            
100066c5  LL_CreateConnCancel                   
100058d5  LL_CtrlToHostFlowControl              
00011e25  LL_DirectTestEnd                      
10009471  LL_DirectTestEndDoneCback             
00011d4d  LL_DirectTestRxTest                   
00011c5b  LL_DirectTestTxTest                   
10005a39  LL_Disconnect                         
10009005  LL_DisconnectCback                    
1000b639  LL_ENC_AES128_Decrypt                 
1000b5f5  LL_ENC_AES128_Encrypt                 
1000b9dd  LL_ENC_Decrypt                        
1000b851  LL_ENC_DecryptMsg                     
1000b965  LL_ENC_Encrypt                        
1000b721  LL_ENC_EncryptMsg                     
1000b555  LL_ENC_GenDeviceIV                    
1000b541  LL_ENC_GenDeviceSKD                   
1000b569  LL_ENC_GenerateNonce                  
1000b50d  LL_ENC_GeneratePseudoRandNum          
1000b51d  LL_ENC_GenerateTrueRandNum            
1000b4c9  LL_ENC_Init                           
1000b58d  LL_ENC_LoadKey                        
1000b4ed  LL_ENC_ReverseBytes                   
10007025  LL_EXT_AdvEventNotice                 
000121f5  LL_EXT_BuildRevision                  
10006b7d  LL_EXT_ClkDivOnHalt                   
000121c5  LL_EXT_ConnEventNotice                
10006b81  LL_EXT_DeclareNvUsage                 
10006b85  LL_EXT_Decrypt                        
100070a1  LL_EXT_DelaySleep                     
10006f4d  LL_EXT_DisconnectImmed                
10006dd1  LL_EXT_EndModemTest                   
1000701d  LL_EXT_ExtendRfRange                  
1000a2ad  LL_EXT_ExtendRfRangeCback             
0001184f  LL_EXT_GetConnInfo                    
10007021  LL_EXT_HaltDuringRf                   
10006f49  LL_EXT_MapPmIoPort                    
10006c91  LL_EXT_ModemHopTestTx                 
00011bd9  LL_EXT_ModemTestRx                    
10006c01  LL_EXT_ModemTestTx                    
1000710d  LL_EXT_NumComplPktsLimit              
10006b59  LL_EXT_OnePacketPerEvent              
10007109  LL_EXT_OverlappedProcessing           
10006fed  LL_EXT_PERbyChan                      
10006f99  LL_EXT_PacketErrorRate                
1000a259  LL_EXT_PacketErrorRateCback           
100070d5  LL_EXT_ResetSystem                    
10006efd  LL_EXT_SaveFreqTune                   
10006e01  LL_EXT_SetBDADDR                      
10006bc5  LL_EXT_SetFastTxResponseTime          
10006ef9  LL_EXT_SetFreqTune                    
00011a61  LL_EXT_SetLocalSupportedFeatures      
00011ac9  LL_EXT_SetMaxDtmTxPower               
10006ad9  LL_EXT_SetRxGain                      
1000a201  LL_EXT_SetRxGainCback                 
10006e85  LL_EXT_SetSCA                         
10006bdd  LL_EXT_SetSlaveLatencyOverride        
00011a91  LL_EXT_SetTxPower                     
1000a211  LL_EXT_SetTxPowerCback                
1000933d  LL_EncChangeCback                     
100093dd  LL_EncKeyRefreshCback                 
000119e1  LL_EncLtkNegReply                     
0001198f  LL_EncLtkReply                        
1000925d  LL_EncLtkReqCback                     
100057d5  LL_Encrypt                            
000121b9  LL_GetNumActiveConns                  
000112e5  LL_Init                               
100057b9  LL_NumEmptyWlEntries                  
00016af1  LL_PM_Enter_AES                       
00016b03  LL_PM_Exit_AES                        
000164d5  LL_PM_ForceSysBusThroughRF            
000168a9  LL_PM_GetRfCoreState                  
0001683b  LL_PM_Init                            
000164dd  LL_PM_InitRadioSetupCmd               
000169cb  LL_PM_PowerCycleRadio                 
000166ff  LL_PM_PowerOffRfCore                  
00016763  LL_PM_PowerOffRfCoreOptimize          
00016a3d  LL_PM_PowerOnReq                      
00016689  LL_PM_PowerOnRfCore                   
00016593  LL_PM_PowerOnRfCoreOptimize           
20004610  LL_PM_RFCmdDoneEventCallback          
0001672b  LL_PM_ShutdownFS                      
000168bf  LL_PM_StartRfTask                     
0001698d  LL_PM_StopCurTaskTimer                
00011637  LL_ProcessEvent                       
10005801  LL_PseudoRand                         
1000556d  LL_RX_bm_alloc                        
100057f5  LL_Rand                               
1000a1d5  LL_RandCback                          
10006105  LL_ReadAdvChanTxPower                 
000118f9  LL_ReadAuthPayloadTimeout             
100056c9  LL_ReadBDADDR                         
100059a1  LL_ReadChanMap                        
10005879  LL_ReadLocalSupportedFeatures         
1000589d  LL_ReadLocalVersionInfo               
00011a17  LL_ReadRemoteUsedFeatures             
00019b1f  LL_ReadRemoteUsedFeaturesCompleteCback
100058e9  LL_ReadRemoteVersionInfo              
100091e1  LL_ReadRemoteVersionInfoCback         
100059d5  LL_ReadRssi                           
0001218d  LL_ReadSupportedStates                
00011ae5  LL_ReadTxPowerLevel                   
100057a1  LL_ReadWlSize                         
00019ce5  LL_RemoteConnParamReqCback            
00011eed  LL_RemoteConnParamReqNegReply         
00011eb1  LL_RemoteConnParamReqReply            
10005765  LL_RemoveWhiteListDevice              
0001173d  LL_Reset                              
0001c135  LL_RxDataCompleteCback                
00012049  LL_SetAdvControl                      
10005f89  LL_SetAdvData                         
10005e69  LL_SetAdvParam                        
100056e9  LL_SetRandomAddress                   
10006209  LL_SetScanControl                     
1000617d  LL_SetScanParam                       
1000612d  LL_SetScanRspData                     
10005549  LL_TX_bm_alloc                        
20004c84  LL_TaskID                             
00011b23  LL_TxData                             
0001191b  LL_WriteAuthPayloadTimeout            
100158ac  LUTC                                  
100158dc  LUTINCI                               
100158f4  LUTJ                                  
1001588c  LUTOPCODE                             
10015894  LUTOPSIGN                             
100158c4  LUTSE                                 
1001596c  LUTSTATE                              
0001d14d  MB_ClearInts                          
0001cc01  MB_DisableInts                        
0001cd01  MB_EnableHWInts                       
0001c7c1  MB_EnableInts                         
10018945  MB_FwDebugDump                        
0001cad5  MB_Init                               
10018935  MB_ReadMailboxStatus                  
1001893d  MB_RegisterIsrCback                   
0001c4e1  MB_SendCommand                        
0001bf0d  MB_SendCommandSynch                   
20004fe4  MOD                                   
20004fd8  MSBMOD                                
10016c79  MixColumns_Sw                         
10018b9c  NIST256_Gx                            
10018bc0  NIST256_Gy                            
10018b54  NIST256_a                             
10018b78  NIST256_b                             
10018b0c  NIST256_p                             
10018b30  NIST256_r                             
0001d4c3  NOROM_CPUcpsid                        
0001d4cf  NOROM_CPUcpsie                        
0001c661  NOROM_IntDisable                      
0001c6d9  NOROM_IntEnable                       
2000471c  OSAL_timeSeconds                      
00014503  Onboard_soft_reset                    
10014c04  P1_ro                                 
10005004  P1_ro_1                               
10019ffe  P1_ro_2                               
1000dffe  P1_ro_2_1                             
20004f40  P2_rw                                 
20004f40  P2_s0                                 
20004fac  P2_zi                                 
200048fc  P2_zi_1                               
0001d89c  R2F_Flash_JT                          
0001df00  R2F_Flash_JT_CommonROM                
0001d938  R2R_Flash_JT                          
0001df18  R2R_Flash_JT_CommonROM                
200048e8  RAM_BASE_ADDR                         
10017158  RCon                                  
10018415  RFHAL_AddTxDataEntry                  
100184f9  RFHAL_AllocDataEntry                  
100184a9  RFHAL_AllocDataEntryQueue             
10018315  RFHAL_AllocRatChan                    
100185e1  RFHAL_BuildDataEntryRingBuffer        
10018669  RFHAL_BuildLinkedBuffer               
10018551  RFHAL_BuildRingBuffer                 
10018549  RFHAL_FreeDataEntry                   
100184c5  RFHAL_FreeDataEntryQueue              
10018485  RFHAL_FreeNextTxDataEntry             
1001833d  RFHAL_FreeRatChan                     
100184cd  RFHAL_GetNextDataEntry                
100184d1  RFHAL_GetTempDataEntry                
100183b9  RFHAL_InitDataQueue                   
100182ad  RFHAL_InitRfHal                       
10018369  RFHAL_MapRatChansToInt                
100184d5  RFHAL_NextDataEntryDone               
100183c5  RFHAL_QueueRFDataEntries              
10018391  RFHAL_RegisterRatChanCallback         
10005001  ROM_BASE_ADDR                         
0001d443  ROM_Spinlock                          
10016b79  RoundKey_Sw                           
10015101  SAVEPOINT                             
1000d964  SCA                                   
20004f68  SCAL                                  
100150e5  SCALARMUL                             
10014ced  SCALARMUL_core                        
10015019  SCALARMUL_final                       
10014c05  SCALARMUL_init                        
10015a51  SETOPERAND                            
10015a91  SETWORD                               
10018089  SHA256_final                          
10018129  SHA256_full                           
10017ffd  SHA256_init                           
10017ef1  SHA256_nextState                      
10018019  SHA256_process                        
10017e75  SHA256_round                          
10017f49  SHA256_saveBuffer                     
10017e39  SHA256_updateW                        
UNDEFED   SHT$$INIT_ARRAY$$Base                 
UNDEFED   SHT$$INIT_ARRAY$$Limit                
00015d5d  SM_CalcRandomAddr                     
00015ddd  SM_Encrypt                            
000160d1  SM_GenerateAuthenSig                  
0001bd21  SM_Init                               
00015d2d  SM_NewRandKey                         
00015657  SM_PasskeyUpdate                      
0001bd3d  SM_ProcessEvent                       
00015d8f  SM_ResolveRandomAddrs                 
000182ed  SM_ResponderInit                      
000155d1  SM_StartPairing                       
0001616b  SM_VerifyAuthenSig                    
10015821  SQUAREMULTIPLYWORD                    
10017895  SSP_CCM_Auth_Encrypt_Sw               
10017365  SSP_CCM_Auth_Sw                       
1001767d  SSP_CCM_Decrypt_Sw                    
100174fd  SSP_CCM_Encrypt_Sw                    
100178f5  SSP_CCM_InvAuth_Decrypt_Sw            
10017839  SSP_CCM_InvAuth_Sw                    
10017771  SSP_CTR_Decrypt_Sw                    
100175ed  SSP_CTR_Encrypt_Sw                    
10017164  Sbox                                  
10015215  SelectReg                             
10016c45  ShiftRows_Sw                          
20004818  SysBootMsg                            
20004f88  TMP1                                  
20004f8c  TMP2                                  
20004f90  TMP3                                  
20004f94  TMP4                                  
20004f98  TMP5                                  
20004f9c  TMP6                                  
1000d2d9  WL_AddEntry                           
1000d1ad  WL_Clear                              
1000d1f5  WL_ClearEntry                         
1000d425  WL_ClearIgnoreList                    
1000d26d  WL_FindEntry                          
1000d23d  WL_GetNumFreeEntries                  
1000d229  WL_GetSize                            
1000d189  WL_Init                               
1000d36d  WL_RemoveEntry                        
1000d3dd  WL_SetWlIgnore                        
10015a85  ZERO                                  
0001e1b0  __TI_CINIT_Base                       
0001e1c8  __TI_CINIT_Limit                      
0001e194  __TI_Handler_Table_Base               
0001e1a0  __TI_Handler_Table_Limit              
0001c751  __TI_auto_init                        
0001c82d  __TI_decompress_lzss                  
0001d4b5  __TI_decompress_none                  
ffffffff  __TI_pprof_out_hndl                   
ffffffff  __TI_prof_data_size                   
ffffffff  __TI_prof_data_start                  
0001e0a0  __TI_static_base__                    
0001d4db  __TI_zero_init                        
0001d42b  __aeabi_lmul                          
0001c5e7  __aeabi_memclr                        
0001c5e7  __aeabi_memclr4                       
0001c5e7  __aeabi_memclr8                       
0001c31d  __aeabi_memcpy                        
0001c31d  __aeabi_memcpy4                       
0001c31d  __aeabi_memcpy8                       
0001c5e9  __aeabi_memset                        
0001c5e9  __aeabi_memset4                       
0001c5e9  __aeabi_memset8                       
0001b5bd  __aeabi_uldivmod                      
ffffffff  __binit__                             
ffffffff  __c_args__                            
1000dffe  __checksum                            
10019ffe  __checksum_CommonROM                  
10005000  __checksum_begin                      
10014c00  __checksum_begin_CommonROM            
1000dffd  __checksum_end                        
10019ffd  __checksum_end_CommonROM              
00005721  __checksum_value                      
0000e0ea  __checksum_value_CommonROM            
10018ced  __exit                                
00019653  _system_post_cinit                    
20004814  activeConns                           
1000d9b0  advChan                               
20004c24  advCmd                                
20004bdc  advDataEntry                          
20004c14  advDataQueue                          
1000d9b4  advEvt2Cmd                            
1000d9c0  advEvt2State                          
200049ec  advInfo                               
20004808  advInfoExt                            
20004e98  advOutput                             
20004d58  advParam                              
0001e044  advPktSuffix                          
2000473b  appTaskID                             
0001babc  appearanceUUID                        
00017bd5  attSendMsg                            
20004fdc  aux64                                 
20004460  baseTaskID                            
ffffffff  binit                                 
0001d07d  bleDispatch_BMAlloc                   
0001d3e3  bleDispatch_BMFree                    
00014de1  bleDispatch_ProcessEvent              
20004740  bleDispatch_TaskID                    
20004f08  bleEvtMask                            
00017d5c  btBaseUUID                            
20004c98  buildInfo                             
20004ee8  cachedTRNGdata                        
20004464  cbTimers                              
20004ca8  chanMapUpdate                         
0001bab4  charAggFormatUUID                     
0001baa0  charExtPropsUUID                      
0001bab0  charFormatUUID                        
0001baa4  charUserDescUUID                      
0001ba9c  characterUUID                         
0001baa8  clientCharCfgUUID                     
20004e70  connOutput                            
20004dc8  connReqData                           
0001cb6d  copy_in                               
00018d75  cpe0IntCback                          
00018f89  cpe1IntCback                          
20004f24  ctrlToHostEnable                      
20004cb9  curTxPowerVal                         
20004fa0  data_Gx                               
20004fa4  data_Gy                               
20004f50  data_a                                
20004fa8  data_b                                
20004f48  data_p                                
20004f4c  data_r                                
20004ed0  deviceFeatureSet                      
0001bab8  deviceNameUUID                        
20004edc  dtmInfo                               
0001bad4  extReportRefUUID                      
20004cbb  fastTxRespTime                        
20004fcc  fwInfoCmd                             
0001a755  gapAddAddrAdj                         
00016fa3  gapAddAdvToken                        
20004664  gapAppTaskID                          
20004667  gapAutoAdvPrivateAddrChange           
00017059  gapBuildADTokens                      
00017023  gapCalcAdvTokenDataLen                
00016fd7  gapDeleteAdvToken                     
0001a781  gapDetermineAddrType                  
20004666  gapDeviceAddrMode                     
0001c595  gapFindADType                         
00017009  gapFindAdvToken                       
00014b81  gapFreeEstLink                        
0001a831  gapGetDevAddress                      
0001a82b  gapGetDevAddressMode                  
0001a845  gapGetIRK                             
0001a803  gapGetSRK                             
0001a809  gapGetSignCounter                     
0001a811  gapIncSignCounter                     
0001c569  gapIsAdvertising                      
0001c571  gapIsScanning                         
00014c9f  gapPairingCompleteCB                  
00014c45  gapPasskeyNeededCB                    
20004668  gapPrivateAddrChangeTimeout           
00014879  gapProcessConnectionCompleteEvt       
00014943  gapProcessDisconnectCompleteEvt       
0001a727  gapProcessNewAddr                     
0001a7a3  gapProcessRandomAddrComplete          
00014929  gapProcessRemoteConnParamReqEvt       
20004665  gapProfileRole                        
0001a6af  gapReadBD_ADDRStatus                  
0001a6e7  gapReadBufSizeCmdStatus               
0001b397  gapRegisterCentral                    
0001b39d  gapRegisterPeripheral                 
00014dbd  gapRegisterPeripheralConn             
00014b93  gapSendBondCompleteEvent              
00014a25  gapSendLinkUpdateEvent                
00014be5  gapSendPairingReqEvent                
00014837  gapSendSlaveSecurityReqEvent          
0001ab98  gapServiceCBs                         
0001ba88  gapServiceUUID                        
00016dd5  gapSetAdvParams                       
00016e51  gapSetAdvParamsStatus                 
200046f4  gapTaskID                             
200046f5  gapUnwantedTaskID                     
000147e7  gapUpdateConnSignCounter              
0001c581  gapValidADType                        
00016f09  gapWriteAdvDataStatus                 
00016e73  gapWriteAdvEnableStatus               
2000473a  gattAppTaskID                         
0001adc1  gattGetPayload                        
0001acd7  gattNotifyEvent                       
200048ae  gattNumConns                          
0001abab  gattRegisterClient                    
0001aba5  gattRegisterServer                    
0001ad8f  gattSendFlowCtrlEvt                   
0001052c  gattServiceCBs                        
0001ba8c  gattServiceUUID                       
0001ad2d  gattStartTimer                        
0001ad3d  gattStopTimer                         
200048af  gattTaskID                            
000182eb  halAssertHandler                      
200048b7  hciExtTaskID                          
200048b4  hciGapTaskID                          
00019a51  hciInitEventMasks                     
200048b5  hciL2capTaskID                        
20004f28  hciPTMenabled                         
200048b6  hciSmpTaskID                          
200048b2  hciTaskID                             
200048b3  hciTestTaskID                         
00019167  hwIntCback                            
20004f58  inPointX                              
20004f5c  inPointY                              
20004f54  inScalar                              
0001ba98  includeUUID                           
20004db0  initCmd                               
20004b94  initDataEntry                         
20004bcc  initDataQueue                         
20004e58  initInfo                              
20004eb8  initOutput                            
20004cf0  initParam                             
0001e04c  initPktSuffix                         
00012cdd  l2capAllocConnChannel                 
00012dad  l2capAllocPsm                         
00012a29  l2capBuildConnectRsp                  
00012aab  l2capBuildDisconnectReq               
00012ab7  l2capBuildDisconnectRsp               
00012af5  l2capBuildFlowCtrlCredit              
0001294f  l2capBuildInfoReq                     
000128dd  l2capBuildParamUpdateReq              
200046dc  l2capChannels                         
0001306f  l2capDisconnectAllChannels            
00013009  l2capDisconnectChannel                
00012757  l2capEncapSendData                    
00012e47  l2capFindLocalCID                     
00012ee1  l2capFindLocalId                      
00012e1d  l2capFindPsm                          
00012e71  l2capFindRemoteCID                    
00012ea3  l2capFindRemoteId                     
200047b4  l2capFixedChannels                    
00013029  l2capFlowCtrlCredit                   
00012d7f  l2capFreeChannel                      
00012c8b  l2capGetCoChannelInfo                 
0001306d  l2capHandleRxError                    
20004734  l2capMtuSize                          
00012b93  l2capNotifyChannelEstEvt              
00012bd5  l2capNotifyChannelTermEvt             
00012b01  l2capNotifyData                       
00012b45  l2capNotifySignal                     
00012de1  l2capNumActiveChannnels               
200046d5  l2capNumChannels                      
200046d8  l2capNumCoChannels                    
200046d6  l2capNumDataPkts                      
200046d7  l2capNumPSM                           
0001289d  l2capParseCmdReject                   
00012a63  l2capParseConnectRsp                  
00012aad  l2capParseDisconnectReq               
00012ad1  l2capParseDisconnectRsp               
000129bd  l2capParseInfoRsp                     
000127fd  l2capParsePacket                      
00012945  l2capParseParamUpdateRsp              
000122a5  l2capParseSignalHdr                   
200046e0  l2capPsm                              
000125bb  l2capReassembleSegment                
0001234f  l2capSendCmd                          
000126d3  l2capSendConnectRsp                   
000123df  l2capSendPkt                          
000122b9  l2capSendReq                          
00012f11  l2capStartTimer                       
00012f25  l2capStopTimer                        
000123b9  l2capStoreFCPkt                       
200046d4  l2capTaskID                           
200046d0  l2capUserConfig                       
20004880  linkCmd                               
2000477c  linkDBNumConns                        
0001af0b  linkDB_Add                            
0001b097  linkDB_Authen                         
0001afb9  linkDB_Find                           
0001afe1  linkDB_FindFirst                      
0001aea1  linkDB_Init                           
0001b08b  linkDB_MTU                            
0001b043  linkDB_NumActive                      
0001b069  linkDB_NumConns                       
0001b0e3  linkDB_PerformFunc                    
0001aeed  linkDB_Register                       
0001af65  linkDB_Remove                         
0001b037  linkDB_Role                           
0001b015  linkDB_State                          
0001af99  linkDB_Update                         
0001b06f  linkDB_UpdateMTU                      
20004884  linkParam                             
0001bb8b  llActiveTask                          
1000cd51  llAdv_TaskAbort                       
00019225  llAdv_TaskConnect                     
1000cc71  llAdv_TaskEnd                         
0000fdf5  llAlignToNextEvent                    
0000f275  llAllocConnId                         
0001bb0f  llAllocTask                           
100082f1  llAtLeastTwoChans                     
0000feaf  llCBTimer_AptoExpiredCback            
1000d94d  llCalcScaFactor                       
1000c1b5  llCheckForLstoDuringSL                
100073a5  llCheckWhiteListUsage                 
100072e9  llClearRfInts                         
0000fccf  llCombinePDU                          
0001e05c  llConfigTable                         
0000f6b9  llConnCleanup                         
000100c1  llConnExists                          
10008631  llConnTerminate                       
20004810  llConnectionExt                       
20004cb0  llConns                               
10008741  llConvertCtrlProcTimeoutToEvent       
10008721  llConvertLstoToEvent                  
10008985  llDataQEmpty                          
10008965  llDataQFull                           
0000f7ab  llDequeueCtrlPkt                      
10008921  llDequeueDataQ                        
1000c87d  llDirAdv_TaskEnd                      
100072e5  llDisableRfInts                       
100072ed  llEnableRfInts                        
100080bd  llEnqueueCtrlPkt                      
10008889  llEnqueueDataQ                        
100088b5  llEnqueueHeadDataQ                    
1000d795  llEqAlreadyValidAddr                  
1000d6e5  llEqSynchWord                         
1000d709  llEqualBytes                          
10008719  llEventDelta                          
100086f1  llEventInRange                        
1000a939  llFindNextSecTask                     
1000a895  llFindStartType                       
0000fc79  llFragmentPDU                         
1000abed  llFreeTask                            
100086b9  llGenerateCRC                         
1000d695  llGenerateValidAccessAddr             
1000aca9  llGetActiveTasks                      
1000d4ad  llGetAdvChanPDU                       
1000ac3d  llGetCurrentTask                      
1000d8c1  llGetCurrentTime                      
0000fc23  llGetMinCI                            
0000fa5b  llGetNextConn                         
0001002f  llGetNextDataChan                     
1000ace1  llGetNumTasks                         
1000b009  llGetNumTxDataEntries                 
0001bbc1  llGetTask                             
0001bb69  llGetTaskState                        
000181f1  llGetTotalNumTxDataEntries            
0000ffd1  llGetTxPower                          
1000d6b1  llGtSixConsecZerosOrOnes              
1000d731  llGtTwentyFourTransitions             
1000720d  llHaltRadio                           
00010239  llHardwareError                       
0000f39f  llInitFeatureSet                      
1000d8b5  llInitRAT                             
1000d10d  llInit_TaskEnd                        
1000d761  llLtTwoChangesInLastSixBits           
100089f1  llMemCopyDst                          
100089d9  llMemCopySrc                          
1000afa1  llMoveTempTxDataEntries               
1000d6f5  llOneBitSynchWordDiffer               
1000adb1  llPatchCM0                            
10008665  llPendingUpdateParam                  
0000ffed  llProcessChanMap                      
100072f1  llProcessPostRfOps                    
1000d575  llProcessScanRxFIFO                   
00017d6d  llProcessSlaveControlPacket           
00014123  llProcessSlaveControlProcedures       
0000f64f  llProcessTxData                       
000182e9  llRatChanCBack_A                      
1000ae41  llRatChanCBack_B                      
1000ae45  llRatChanCBack_C                      
1000ae49  llRatChanCBack_D                      
0000f87d  llRealignConn                         
10008461  llReleaseAllConnId                    
10008429  llReleaseConnId                       
0000f7e9  llReplaceCtrlPkt                      
10007201  llResetRadio                          
0000ff15  llRfInit                              
10007269  llRfStartFS                           
1000d46d  llScan_TaskEnd                        
0001bbf1  llScheduleTask                        
1000a335  llScheduler                           
0001badd  llSchedulerInit                       
00010189  llSendReject                          
100072e1  llSetFreqTune                         
00010079  llSetNextDataChan                     
0000ff9f  llSetTxPower                          
100073e5  llSetupAdv                            
1000aeb1  llSetupAdvDataEntryQueue              
10007985  llSetupConn                           
0000f4e5  llSetupConnParamReq                   
0000f527  llSetupConnParamRsp                   
00018239  llSetupConnRxDataEntryQueue           
10007aed  llSetupEncReq                         
10007b95  llSetupEncRsp                         
0000f3b7  llSetupFeatureSetReq                  
0000f401  llSetupFeatureSetRsp                  
100077b5  llSetupInit                           
1000ae95  llSetupInitDataEntryQueue             
1000ad21  llSetupMailbox                        
00013dc1  llSetupNextSlaveEvent                 
10007cfd  llSetupPauseEncReq                    
10007d55  llSetupPauseEncRsp                    
0000f459  llSetupPingReq                        
0000f48f  llSetupPingRsp                        
1000adc9  llSetupRATChanCompare                 
10007df5  llSetupRejectInd                      
0000f5d9  llSetupRejectIndExt                   
1000ad6d  llSetupRfHal                          
100075fd  llSetupScan                           
1000ae4d  llSetupScanDataEntryQueue             
10007c55  llSetupStartEncReq                    
10007ca9  llSetupStartEncRsp                    
000101c9  llSetupTermInd                        
10008069  llSetupUnknownRsp                     
100079c9  llSetupUpdateParamReq                 
10007f29  llSetupVersionIndReq                  
00013bc5  llSlave_TaskEnd                       
0000f80f  llSortActiveConns                     
20004cb8  llState                               
1000d9e1  llTaskError                           
20004ef4  llTaskList                            
1000d8c9  llTimeCompare                         
1000d8f5  llTimeDelta                           
200046e4  llUserConfig                          
1000d635  llValidAccessAddr                     
0000f1f5  llVerifyConnParamReqParams            
100087c9  llWriteTxData                         
0001e09c  ll_buildRevision                      
10016551  mADD                                  
10015bd5  mINVK                                 
10015f81  mMULT                                 
10016749  mOUT                                  
10015a9d  mSET                                  
1001664d  mSUB                                  
20004cbc  maxNumConns                           
20004804  maxPduSize                            
0001e054  maxPktsPerEvt                         
2000480c  maxQueuedPdu                          
20004c85  maxTxPwrForDTM                        
0001d29d  mbCmdAckIsr                           
0001ce89  mbCpe0Isr                             
0001cebd  mbCpe1Isr                             
0001cef1  mbHwIsr                               
20004fec  mbIntCbackTable                       
0001c31d  memcpy                                
0001c5ef  memset                                
20004f14  mstCmd                                
20004f18  mstParam                              
200048bb  nextConnId                            
20004cba  numComplPkts                          
20004c88  numComplPktsFlush                     
20004c87  numComplPktsLimit                     
20004f26  numHostBufs                           
20004c8b  numTxDataBufs                         
20004c86  onePktPerEvt                          
0001cbb9  osalAddTimer                          
0001d2bd  osalFindTimer                         
0001be25  osalTimerUpdate                       
0001c3b9  osal_CbTimerProcessEvent              
0001d4e7  osal_CbTimerStart                     
0001ca29  osal_CbTimerStop                      
0001c895  osal_CbTimerUpdate                    
0001d0d5  osal_bm_adjust_header                 
0001cd3d  osal_bm_alloc                         
0001cb21  osal_bm_free                          
0001d3fb  osal_buffer_uint32                    
0001d021  osal_build_uint32                     
0001cf25  osal_clear_event                      
2000461a  osal_entity                           
20004620  osal_eventloop_hook                   
0001cff1  osal_get_timeoutEx                    
0001d3c9  osal_isbufset                         
20004628  osal_last_timestamp                   
20004630  osal_max_msecs                        
0001d0fd  osal_mem_alloc                        
0001d2dd  osal_mem_free                         
0001d2fd  osal_memcmp                           
0001d413  osal_memcpy                           
0001d375  osal_memdup                           
0001d501  osal_memset                           
0001d195  osal_msg_allocate                     
0001d31d  osal_msg_deallocate                   
0001c44d  osal_msg_receive                      
0001c9c9  osal_msg_send                         
0001d125  osal_next_timeout                     
0001c8fd  osal_pwrmgr_task_state                
2000461c  osal_qHead                            
0001d49d  osal_rand                             
0001d3ad  osal_revmemcpy                        
0001d4f5  osal_self                             
20004624  osal_semaphore                        
0001d1b9  osal_service_entry                    
0001bfe1  osal_set_event                        
0001d505  osal_snv_read                         
0001d509  osal_snv_write                        
0001cd79  osal_start_reload_timer               
0001b3c1  osal_start_system                     
0001cf59  osal_start_timerEx                    
0001cf8d  osal_stop_timerEx                     
0001d459  osal_strlen                           
2000462c  osal_tickperiod                       
20004f60  outPointX                             
20004f64  outPointY                             
20004c6c  ownPublicAddr                         
20004c74  ownRandomAddr                         
20004c7c  ownSavedPublicAddr                    
200046ac  pAuthLink                             
20004838  pBleEvtMask                           
200046a8  pEstLink                              
20004888  pGapAdvertState                       
2000488c  pGapDiscReq                           
20004f00  pHciEvtMask                           
20004840  pHciEvtMask2                          
20004860  pPairingParams                        
20004ffc  pSspAesEncrypt_Sw                     
00017205  patchCM0                              
20004c9c  peerInfo                              
0001bac8  periConnParamUUID                     
0001bac0  periPrivacyFlagUUID                   
200046b0  pfnCentralConnCBs                     
200046f8  pfnPeripheralCBs                      
20004890  pfnPeripheralConnCBs                  
20004864  pfnResponderCBs                       
20004cbe  postRfOperations                      
0001ba90  primaryServiceUUID                    
2000472a  pwrmgr_attribute                      
20004728  pwrmgr_initialized                    
20004fac  ratChanInfo                           
0001bac4  reconnectAddrUUID                     
0001bad8  reportRefUUID                         
20004739  reqTaskId                             
20004c94  rfCfgAdiVal                           
0001e03c  rfCfgVal                              
20004805  rfFeModeBias                          
0001e058  rfOpLoc                               
1000dffc  romRev                                
20004741  rspBuf                                
20004cc0  rssiCorrection                        
20004f0c  rxDataQ                               
20004c8a  rxFifoFlowCtrl                        
20004e40  rxModemTestCmd                        
0001e040  rxPktSuffix                           
20004f10  rxRingBuf                             
20004ec4  rxTestOut                             
20004e84  rxTestParam                           
20004df8  scanCmd                               
200048fc  scanDataEntry                         
200049dc  scanDataQueue                         
20004d94  scanInfo                              
20004e10  scanOutput                            
20004d14  scanParam                             
0001e048  scanPktSuffix                         
2000481c  sclkSrc                               
0001ba94  secondaryServiceUUID                  
000149a1  sendEstLinkEvent                      
0001baac  servCharCfgUUID                       
20004898  serverInfoTbl                         
0001bacc  serviceChangedUUID                    
20004c89  slOverride                            
200046a4  slaveConnHandle                       
2000469c  slaveUpdateReq                        
20004c96  sleepDelay                            
20004de0  slvCmd                                
20004d38  slvParam                              
00016073  smAuthReqToUint8                      
00015c8b  smDetermineKeySize                    
00015c5b  smEndPairing                          
000159ef  smGenerateConfirm                     
000159c3  smGeneratePairingReqRsp               
0001604d  smGenerateRandBuf                     
00015a07  smGenerateRandMsg                     
00015eab  smInProcess                           
000156e1  smLinkCheck                           
0001588f  smNextPairingState                    
00015baf  smPairingSendEncInfo                  
00015be7  smPairingSendIdentityAddrInfo         
00015bdd  smPairingSendIdentityInfo             
00015bb5  smPairingSendMasterID                 
00015c0b  smPairingSendSingingInfo              
000156fd  smProcessDataMsg                      
000157e5  smProcessEncryptChange                
00015955  smProcessPairingReq                   
00015e1b  smProcessRandComplete                 
000156d1  smRegisterInitiator                   
000156d9  smRegisterResponder                   
00015a31  smSavePairInfo                        
000157c9  smSendFailAndEnd                      
0001a17f  smSendSMMsg                           
000159a9  smStartEncryption                     
00015e85  smStartRspTimer                       
00015ea1  smStopRspTimer                        
200048bd  smTaskID                              
000156f9  smTimedOut                            
00016093  smUint8ToAuthReq                      
00015edf  sm_ah                                 
000158bf  sm_c1                                 
00015f3f  sm_c1new                              
00015ebd  sm_d1                                 
00015f15  sm_dm                                 
0001600d  sm_s1                                 
0001a04d  smpBuildEncInfo                       
0001a0cf  smpBuildIdentityAddrInfo              
0001a0bd  smpBuildIdentityInfo                  
0001a075  smpBuildMasterID                      
00019fb7  smpBuildPairingConfirm                
0001a017  smpBuildPairingFailed                 
00019fdf  smpBuildPairingRandom                 
00019e2d  smpBuildPairingReq                    
00019e3b  smpBuildPairingReqRsp                 
00019e35  smpBuildPairingRsp                    
0001a147  smpBuildSecurityReq                   
0001a11f  smpBuildSigningInfo                   
0001a05f  smpParseEncInfo                       
0001a103  smpParseIdentityAddrInfo              
0001a0ed  smpParseIdentityInfo                  
0001a099  smpParseMasterID                      
00019fc9  smpParsePairingConfirm                
0001a02f  smpParsePairingFailed                 
0001a001  smpParsePairingRandom                 
00019ee3  smpParsePairingReq                    
0001a163  smpParseSecurityReq                   
0001a131  smpParseSigningInfo                   
000185ad  smpResponderProcessPairingReq         
10016d29  sspAesDecrypt_Sw                      
10016af5  sspAesEncryptBasic_Sw                 
10016a99  sspAesEncryptKeyExp_Sw                
10016979  sspAesEncrypt_Sw                      
10016985  sspKeyExpansion_Sw                    
10016975  ssp_KeyInit_Sw                        
0000f001  startup_entry                         
0001a500  supportedCmdsTable                    
20004cc4  taskEndAction                         
20004f0a  taskEndStatus                         
0001e00c  tasksArr                              
200048a8  tasksEvents                           
2000486c  timerHead                             
20004e28  trxTestCmd                            
20004f1c  txDataQ                               
20004d78  txModemTestCmd                        
0001e030  txPowerTable                          
0001e034  txPwrTbl                              
20004f20  txTestOut                             
20004ea8  txTestParam                           
0001bad0  validRangeUUID                        
20004c8c  verInfo                               
20004f40  win                                   
0001e050  wlSize                                
20004a8c  wlTable                               
20004b10  wlTableScan                           
20004f44  workzone                              
10015d19  zADD                                  
10015eb5  zADD32                                
10015de9  zMACC32                               
10015f0d  zMULT32                               
10015bcd  zSET                                  
10015d5d  zSUB                                  
10015e69  zSUB32                                


GLOBAL SYMBOLS: SORTED BY Symbol Address 

address   name                                  
-------   ----                                  
00005721  __checksum_value                      
0000e0ea  __checksum_value_CommonROM            
0000f001  startup_entry                         
0000f1f5  llVerifyConnParamReqParams            
0000f275  llAllocConnId                         
0000f39f  llInitFeatureSet                      
0000f3b7  llSetupFeatureSetReq                  
0000f401  llSetupFeatureSetRsp                  
0000f459  llSetupPingReq                        
0000f48f  llSetupPingRsp                        
0000f4e5  llSetupConnParamReq                   
0000f527  llSetupConnParamRsp                   
0000f5d9  llSetupRejectIndExt                   
0000f64f  llProcessTxData                       
0000f6b9  llConnCleanup                         
0000f7ab  llDequeueCtrlPkt                      
0000f7e9  llReplaceCtrlPkt                      
0000f80f  llSortActiveConns                     
0000f87d  llRealignConn                         
0000fa5b  llGetNextConn                         
0000fc23  llGetMinCI                            
0000fc79  llFragmentPDU                         
0000fccf  llCombinePDU                          
0000fdf5  llAlignToNextEvent                    
0000feaf  llCBTimer_AptoExpiredCback            
0000ff15  llRfInit                              
0000ff9f  llSetTxPower                          
0000ffd1  llGetTxPower                          
0000ffed  llProcessChanMap                      
0001002f  llGetNextDataChan                     
00010079  llSetNextDataChan                     
000100c1  llConnExists                          
00010189  llSendReject                          
000101c9  llSetupTermInd                        
00010239  llHardwareError                       
000102b5  GATTServApp_RegisterForMsg            
000102bd  GATTServApp_Init                      
0001032b  GATTServApp_ProcessEvent              
00010369  GATTServApp_RegisterService           
000103bd  GATTServApp_DeregisterService         
000103ff  GATTServApp_SetParameter              
0001045f  GATTServApp_GetParameter              
00010515  GATTServApp_AddService                
0001052c  gattServiceCBs                        
00010539  GATTServApp_DelService                
00010f7d  GATTServApp_ReadAttr                  
00011171  GATTServApp_WriteAttr                 
000111f9  GATTServApp_SetParamValue             
000111fb  GATTServApp_GetParamValue             
000111ff  GATTServApp_UpdateCharCfg             
0001121d  GATTServApp_SendServiceChangedInd     
0001129d  GATTServApp_SendCCCUpdatedEvent       
000112e5  LL_Init                               
00011637  LL_ProcessEvent                       
0001173d  LL_Reset                              
0001184f  LL_EXT_GetConnInfo                    
000118f9  LL_ReadAuthPayloadTimeout             
0001191b  LL_WriteAuthPayloadTimeout            
0001198f  LL_EncLtkReply                        
000119e1  LL_EncLtkNegReply                     
00011a17  LL_ReadRemoteUsedFeatures             
00011a61  LL_EXT_SetLocalSupportedFeatures      
00011a91  LL_EXT_SetTxPower                     
00011ac9  LL_EXT_SetMaxDtmTxPower               
00011ae5  LL_ReadTxPowerLevel                   
00011b23  LL_TxData                             
00011bd9  LL_EXT_ModemTestRx                    
00011c5b  LL_DirectTestTxTest                   
00011d4d  LL_DirectTestRxTest                   
00011e25  LL_DirectTestEnd                      
00011eb1  LL_RemoteConnParamReqReply            
00011eed  LL_RemoteConnParamReqNegReply         
00011f4d  LL_ConnUpdate                         
00012049  LL_SetAdvControl                      
0001218d  LL_ReadSupportedStates                
000121b9  LL_GetNumActiveConns                  
000121c5  LL_EXT_ConnEventNotice                
000121f5  LL_EXT_BuildRevision                  
000122a5  l2capParseSignalHdr                   
000122b9  l2capSendReq                          
0001234f  l2capSendCmd                          
000123b9  l2capStoreFCPkt                       
000123df  l2capSendPkt                          
000125bb  l2capReassembleSegment                
000126d3  l2capSendConnectRsp                   
00012757  l2capEncapSendData                    
000127fd  l2capParsePacket                      
0001285f  L2CAP_BuildCmdReject                  
0001289d  l2capParseCmdReject                   
000128dd  l2capBuildParamUpdateReq              
00012909  L2CAP_ParseParamUpdateReq             
00012943  L2CAP_BuildParamUpdateRsp             
00012945  l2capParseParamUpdateRsp              
0001294f  l2capBuildInfoReq                     
0001295f  L2CAP_ParseInfoReq                    
00012977  L2CAP_BuildInfoRsp                    
000129bd  l2capParseInfoRsp                     
00012a1b  L2CAP_BuildConnectReq                 
00012a1d  L2CAP_ParseConnectReq                 
00012a29  l2capBuildConnectRsp                  
00012a63  l2capParseConnectRsp                  
00012aab  l2capBuildDisconnectReq               
00012aad  l2capParseDisconnectReq               
00012ab7  l2capBuildDisconnectRsp               
00012ad1  l2capParseDisconnectRsp               
00012af5  l2capBuildFlowCtrlCredit              
00012af7  L2CAP_ParseFlowCtrlCredit             
00012b01  l2capNotifyData                       
00012b45  l2capNotifySignal                     
00012b93  l2capNotifyChannelEstEvt              
00012bd5  l2capNotifyChannelTermEvt             
00012c8b  l2capGetCoChannelInfo                 
00012cdd  l2capAllocConnChannel                 
00012d7f  l2capFreeChannel                      
00012dad  l2capAllocPsm                         
00012de1  l2capNumActiveChannnels               
00012e1d  l2capFindPsm                          
00012e47  l2capFindLocalCID                     
00012e71  l2capFindRemoteCID                    
00012ea3  l2capFindRemoteId                     
00012ee1  l2capFindLocalId                      
00012f11  l2capStartTimer                       
00012f25  l2capStopTimer                        
00013009  l2capDisconnectChannel                
00013029  l2capFlowCtrlCredit                   
0001306d  l2capHandleRxError                    
0001306f  l2capDisconnectAllChannels            
00013159  L2CAP_bm_alloc                        
00013173  L2CAP_SetParamValue                   
00013175  L2CAP_GetParamValue                   
00013179  GATT_InitServer                       
000131df  GATT_RegisterService                  
00013277  GATT_DeregisterService                
000132b7  GATT_RegisterForReq                   
000132bf  GATT_VerifyReadPermissions            
000132f5  GATT_VerifyWritePermissions           
00013347  GATT_ServiceChangedInd                
000133b9  GATT_FindHandleUUID                   
00013415  GATT_FindHandle                       
0001345d  GATT_FindNextAttr                     
000134e1  GATT_ServiceNumAttrs                  
000134ed  GATT_ServiceEncKeySize                
000134fd  GATT_SendRsp                          
000135b1  GATT_Indication                       
0001360b  GATT_Notification                     
00013b3b  GATT_SetNextHandle                    
00013b3d  GATT_GetNextHandle                    
00013bc5  llSlave_TaskEnd                       
00013dc1  llSetupNextSlaveEvent                 
00014123  llProcessSlaveControlProcedures       
00014503  Onboard_soft_reset                    
00014505  GAP_TerminateLinkReq                  
0001457f  GAP_UpdateLinkParamReq                
000145ef  GAP_Signable                          
00014637  GAP_Authenticate                      
000146d1  GAP_TerminateAuth                     
000146ef  GAP_PasskeyUpdate                     
00014721  GAP_PasscodeUpdate                    
0001476d  GAP_Bond                              
000147e7  gapUpdateConnSignCounter              
00014837  gapSendSlaveSecurityReqEvent          
00014879  gapProcessConnectionCompleteEvt       
00014929  gapProcessRemoteConnParamReqEvt       
00014943  gapProcessDisconnectCompleteEvt       
000149a1  sendEstLinkEvent                      
00014a25  gapSendLinkUpdateEvent                
00014b81  gapFreeEstLink                        
00014b93  gapSendBondCompleteEvent              
00014be5  gapSendPairingReqEvent                
00014c45  gapPasskeyNeededCB                    
00014c9f  gapPairingCompleteCB                  
00014dbd  gapRegisterPeripheralConn             
00014de1  bleDispatch_ProcessEvent              
000155d1  SM_StartPairing                       
00015657  SM_PasskeyUpdate                      
000156d1  smRegisterInitiator                   
000156d9  smRegisterResponder                   
000156e1  smLinkCheck                           
000156f9  smTimedOut                            
000156fd  smProcessDataMsg                      
000157c9  smSendFailAndEnd                      
000157e5  smProcessEncryptChange                
0001588f  smNextPairingState                    
000158bf  sm_c1                                 
00015955  smProcessPairingReq                   
000159a9  smStartEncryption                     
000159c3  smGeneratePairingReqRsp               
000159ef  smGenerateConfirm                     
00015a07  smGenerateRandMsg                     
00015a31  smSavePairInfo                        
00015baf  smPairingSendEncInfo                  
00015bb5  smPairingSendMasterID                 
00015bdd  smPairingSendIdentityInfo             
00015be7  smPairingSendIdentityAddrInfo         
00015c0b  smPairingSendSingingInfo              
00015c5b  smEndPairing                          
00015c8b  smDetermineKeySize                    
00015d2d  SM_NewRandKey                         
00015d5d  SM_CalcRandomAddr                     
00015d8f  SM_ResolveRandomAddrs                 
00015ddd  SM_Encrypt                            
00015e1b  smProcessRandComplete                 
00015e85  smStartRspTimer                       
00015ea1  smStopRspTimer                        
00015eab  smInProcess                           
00015ebd  sm_d1                                 
00015edf  sm_ah                                 
00015f15  sm_dm                                 
00015f3f  sm_c1new                              
0001600d  sm_s1                                 
0001604d  smGenerateRandBuf                     
00016073  smAuthReqToUint8                      
00016093  smUint8ToAuthReq                      
000160d1  SM_GenerateAuthenSig                  
0001616b  SM_VerifyAuthenSig                    
000164d5  LL_PM_ForceSysBusThroughRF            
000164dd  LL_PM_InitRadioSetupCmd               
00016593  LL_PM_PowerOnRfCoreOptimize           
00016689  LL_PM_PowerOnRfCore                   
000166ff  LL_PM_PowerOffRfCore                  
0001672b  LL_PM_ShutdownFS                      
00016763  LL_PM_PowerOffRfCoreOptimize          
0001683b  LL_PM_Init                            
000168a9  LL_PM_GetRfCoreState                  
000168bf  LL_PM_StartRfTask                     
0001698d  LL_PM_StopCurTaskTimer                
000169cb  LL_PM_PowerCycleRadio                 
00016a3d  LL_PM_PowerOnReq                      
00016af1  LL_PM_Enter_AES                       
00016b03  LL_PM_Exit_AES                        
00016b09  GAP_MakeDiscoverable                  
00016baf  GAP_UpdateAdvertisingData             
00016c1d  GAP_EndDiscoverable                   
00016c69  GAP_SetAdvToken                       
00016ccd  GAP_GetAdvToken                       
00016ce9  GAP_RemoveAdvToken                    
00016cfd  GAP_UpdateAdvTokens                   
00016d11  GAP_PeriDevMgrInit                    
00016dd5  gapSetAdvParams                       
00016e51  gapSetAdvParamsStatus                 
00016e73  gapWriteAdvEnableStatus               
00016f09  gapWriteAdvDataStatus                 
00016fa3  gapAddAdvToken                        
00016fd7  gapDeleteAdvToken                     
00017009  gapFindAdvToken                       
00017023  gapCalcAdvTokenDataLen                
00017059  gapBuildADTokens                      
00017205  patchCM0                              
000177bd  ATT_ParsePacket                       
00017817  ATT_BuildErrorRsp                     
00017829  ATT_ParseErrorRsp                     
00017847  ATT_BuildExchangeMTUReq               
00017849  ATT_ParseExchangeMTUReq               
00017853  ATT_BuildExchangeMTURsp               
00017863  ATT_ParseExchangeMTURsp               
00017879  ATT_BuildFindInfoReq                  
0001787b  ATT_ParseFindInfoReq                  
00017885  ATT_BuildFindInfoRsp                  
0001789d  ATT_ParseFindInfoRsp                  
000178df  ATT_BuildFindByTypeValueReq           
000178f9  ATT_ParseFindByTypeValueReq           
0001793b  ATT_BuildFindByTypeValueRsp           
00017943  ATT_ParseFindByTypeValueRsp           
00017955  ATT_BuildReadByTypeReq                
00017985  ATT_ParseReadByTypeReq                
000179c1  ATT_BuildReadByTypeRsp                
000179c3  ATT_ParseReadByTypeRsp                
000179e3  ATT_BuildReadReq                      
000179e5  ATT_ParseReadReq                      
000179ff  ATT_BuildReadRsp                      
00017a03  ATT_ParseReadRsp                      
00017a05  ATT_ParseWriteReq                     
00017a2f  ATT_BuildWriteReq                     
00017a31  ATT_ParseWriteRsp                     
00017a3b  ATT_BuildReadBlobReq                  
00017a55  ATT_ParseReadBlobReq                  
00017a79  ATT_BuildReadBlobRsp                  
00017a7d  ATT_ParseReadBlobRsp                  
00017a8b  ATT_BuildReadMultiReq                 
00017a93  ATT_ParseReadMultiReq                 
00017aab  ATT_BuildReadMultiRsp                 
00017aaf  ATT_ParseReadMultiRsp                 
00017ab1  ATT_BuildReadByGrpTypeRsp             
00017ac3  ATT_ParseReadByGrpTypeRsp             
00017aed  ATT_BuildPrepareWriteReq              
00017aef  ATT_ParsePrepareWriteReq              
00017b17  ATT_BuildPrepareWriteRsp              
00017b35  ATT_ParsePrepareWriteRsp              
00017b67  ATT_BuildExecuteWriteReq              
00017b6f  ATT_ParseExecuteWriteReq              
00017b81  ATT_ParseExecuteWriteRsp              
00017b8b  ATT_BuildHandleValueInd               
00017b9f  ATT_ParseHandleValueInd               
00017bcb  ATT_ParseHandleValueCfm               
00017bd5  attSendMsg                            
00017c59  ATT_CompareUUID                       
00017ca9  ATT_ConvertUUIDto128                  
00017cd1  ATT_ConvertUUIDto16                   
00017d0f  ATT_UpdateMTU                         
00017d39  ATT_GetMTU                            
00017d57  ATT_SetParamValue                     
00017d59  ATT_GetParamValue                     
00017d5c  btBaseUUID                            
00017d6d  llProcessSlaveControlPacket           
000181f1  llGetTotalNumTxDataEntries            
00018239  llSetupConnRxDataEntryQueue           
000182e9  llRatChanCBack_A                      
000182eb  halAssertHandler                      
000182ed  SM_ResponderInit                      
000185ad  smpResponderProcessPairingReq         
00018845  L2CAP_Init                            
000188cd  L2CAP_ProcessEvent                    
00018d75  cpe0IntCback                          
00018f89  cpe1IntCback                          
00019167  hwIntCback                            
00019225  llAdv_TaskConnect                     
00019653  _system_post_cinit                    
00019655  L2CAP_RegisterApp                     
00019681  L2CAP_SendData                        
000196e5  L2CAP_RegisterPsm                     
0001972b  L2CAP_DeregisterPsm                   
00019753  L2CAP_PsmInfo                         
00019783  L2CAP_PsmChannels                     
000197e9  L2CAP_ChannelInfo                     
00019809  L2CAP_SendSDU                         
00019873  L2CAP_ConnectReq                      
000198c9  L2CAP_ConnectRsp                      
000198ef  L2CAP_DisconnectReq                   
00019915  L2CAP_FlowCtrlCredit                  
00019955  L2CAP_CmdReject                       
00019963  L2CAP_InfoReq                         
00019977  L2CAP_ConnParamUpdateReq              
0001998f  L2CAP_ConnParamUpdateRsp              
000199a1  L2CAP_SetControllerToHostFlowCtrl     
000199db  L2CAP_HostNumCompletedPkts            
000199f1  L2CAP_SetBufSize                      
000199fd  L2CAP_GetMTU                          
00019a03  L2CAP_SetUserConfig                   
00019a51  hciInitEventMasks                     
00019a9d  LL_ConnParamUpdateCback               
00019b1f  LL_ReadRemoteUsedFeaturesCompleteCback
00019b8d  HCI_NumOfCompletedPacketsEvent        
00019c6b  LL_AuthPayloadTimeoutExpiredCback     
00019ce5  LL_RemoteConnParamReqCback            
00019db3  HCI_VendorSpecifcCommandCompleteEvent 
00019e2d  smpBuildPairingReq                    
00019e35  smpBuildPairingRsp                    
00019e3b  smpBuildPairingReqRsp                 
00019ee3  smpParsePairingReq                    
00019fb7  smpBuildPairingConfirm                
00019fc9  smpParsePairingConfirm                
00019fdf  smpBuildPairingRandom                 
0001a001  smpParsePairingRandom                 
0001a017  smpBuildPairingFailed                 
0001a02f  smpParsePairingFailed                 
0001a04d  smpBuildEncInfo                       
0001a05f  smpParseEncInfo                       
0001a075  smpBuildMasterID                      
0001a099  smpParseMasterID                      
0001a0bd  smpBuildIdentityInfo                  
0001a0cf  smpBuildIdentityAddrInfo              
0001a0ed  smpParseIdentityInfo                  
0001a103  smpParseIdentityAddrInfo              
0001a11f  smpBuildSigningInfo                   
0001a131  smpParseSigningInfo                   
0001a147  smpBuildSecurityReq                   
0001a163  smpParseSecurityReq                   
0001a17f  smSendSMMsg                           
0001a1c9  HCI_ValidConnTimeParams               
0001a205  HCI_ResetCmd                          
0001a227  HCI_ReadLocalSupportedCommandsCmd     
0001a23b  HCI_EXT_GetConnInfoCmd                
0001a2bd  HCI_ReadAuthPayloadTimeoutCmd         
0001a2e1  HCI_WriteAuthPayloadTimeoutCmd        
0001a2fb  HCI_LE_ReadBufSizeCmd                 
0001a329  HCI_LE_RemoteConnParamReqReplyCmd     
0001a35b  HCI_LE_RemoteConnParamReqNegReplyCmd  
0001a383  HCI_LE_ReadRemoteUsedFeaturesCmd      
0001a3ad  HCI_LE_TransmitterTestCmd             
0001a3bf  HCI_LE_ReceiverTestCmd                
0001a3d1  HCI_SetEventMaskPage2Cmd              
0001a3f9  HCI_LE_ConnUpdateCmd                  
0001a41b  HCI_EXT_ResetSystemCmd                
0001a449  HCI_EXT_DelaySleepCmd                 
0001a46d  HCI_EXT_ConnEventNoticeCmd            
0001a471  HCI_LE_SetEventMaskCmd                
0001a4a9  HCI_ReadLocalVersionInfoCmd           
0001a500  supportedCmdsTable                    
0001a545  GAP_SetParamValue                     
0001a561  GAP_GetParamValue                     
0001a573  GAP_ParamsInit                        
0001a59b  GAP_SecParamsInit                     
0001a5d9  GAP_ConfigDeviceAddr                  
0001a6af  gapReadBD_ADDRStatus                  
0001a6e7  gapReadBufSizeCmdStatus               
0001a727  gapProcessNewAddr                     
0001a755  gapAddAddrAdj                         
0001a781  gapDetermineAddrType                  
0001a7a3  gapProcessRandomAddrComplete          
0001a803  gapGetSRK                             
0001a809  gapGetSignCounter                     
0001a811  gapIncSignCounter                     
0001a82b  gapGetDevAddressMode                  
0001a831  gapGetDevAddress                      
0001a845  gapGetIRK                             
0001a89d  GGS_SetParameter                      
0001a91d  GGS_GetParameter                      
0001a953  GGS_SetParamValue                     
0001a955  GGS_GetParamValue                     
0001a959  GGS_AddService                        
0001a971  GGS_DelService                        
0001a985  GGS_RegisterAppCBs                    
0001ab98  gapServiceCBs                         
0001aba5  gattRegisterServer                    
0001abab  gattRegisterClient                    
0001abb1  GATT_RegisterForMsgs                  
0001abb7  GATT_SetHostToAppFlowCtrl             
0001abc3  GATT_AppCompletedMsg                  
0001abeb  GATT_Init                             
0001ac09  GATT_ProcessEvent                     
0001acd7  gattNotifyEvent                       
0001ad2d  gattStartTimer                        
0001ad3d  gattStopTimer                         
0001ad55  GATT_NotifyEvent                      
0001ad69  GATT_UpdateMTU                        
0001ad8f  gattSendFlowCtrlEvt                   
0001adc1  gattGetPayload                        
0001ae15  GATT_bm_alloc                         
0001ae8d  GATT_bm_free                          
0001aea1  linkDB_Init                           
0001aeed  linkDB_Register                       
0001af0b  linkDB_Add                            
0001af65  linkDB_Remove                         
0001af99  linkDB_Update                         
0001afb9  linkDB_Find                           
0001afe1  linkDB_FindFirst                      
0001b015  linkDB_State                          
0001b037  linkDB_Role                           
0001b043  linkDB_NumActive                      
0001b069  linkDB_NumConns                       
0001b06f  linkDB_UpdateMTU                      
0001b08b  linkDB_MTU                            
0001b097  linkDB_Authen                         
0001b0e3  linkDB_PerformFunc                    
0001b135  GAP_RegisterForMsgs                   
0001b13b  GAP_Init                              
0001b151  GAP_ProcessEvent                      
0001b217  GAP_NumActiveConnections              
0001b397  gapRegisterCentral                    
0001b39d  gapRegisterPeripheral                 
0001b3c1  osal_start_system                     
0001b5bd  __aeabi_uldivmod                      
0001b7b1  ATT_RegisterServer                    
0001b7b7  ATT_ErrorRsp                          
0001b7c9  ATT_ExchangeMTURsp                    
0001b7e1  ATT_FindInfoRsp                       
0001b811  ATT_FindByTypeValueRsp                
0001b831  ATT_ReadByTypeRsp                     
0001b85d  ATT_ReadRsp                           
0001b879  ATT_ReadBlobRsp                       
0001b895  ATT_ReadMultiRsp                      
0001b8b3  ATT_ReadByGrpTypeRsp                  
0001b8d5  ATT_WriteRsp                          
0001b8e1  ATT_PrepareWriteRsp                   
0001b8fb  ATT_ExecuteWriteRsp                   
0001b907  ATT_HandleValueNoti                   
0001b91d  ATT_HandleValueInd                    
0001b99d  GATT_FindUUIDRec                      
0001ba88  gapServiceUUID                        
0001ba8c  gattServiceUUID                       
0001ba90  primaryServiceUUID                    
0001ba94  secondaryServiceUUID                  
0001ba98  includeUUID                           
0001ba9c  characterUUID                         
0001baa0  charExtPropsUUID                      
0001baa4  charUserDescUUID                      
0001baa8  clientCharCfgUUID                     
0001baac  servCharCfgUUID                       
0001bab0  charFormatUUID                        
0001bab4  charAggFormatUUID                     
0001bab8  deviceNameUUID                        
0001babc  appearanceUUID                        
0001bac0  periPrivacyFlagUUID                   
0001bac4  reconnectAddrUUID                     
0001bac8  periConnParamUUID                     
0001bacc  serviceChangedUUID                    
0001bad0  validRangeUUID                        
0001bad4  extReportRefUUID                      
0001bad8  reportRefUUID                         
0001badd  llSchedulerInit                       
0001bb0f  llAllocTask                           
0001bb69  llGetTaskState                        
0001bb8b  llActiveTask                          
0001bbc1  llGetTask                             
0001bbf1  llScheduleTask                        
0001bc15  GAP_SendSlaveSecurityRequest          
0001bc4d  GAP_PeriConnRegister                  
0001bd21  SM_Init                               
0001bd3d  SM_ProcessEvent                       
0001be25  osalTimerUpdate                       
0001bf0d  MB_SendCommandSynch                   
0001bfe1  osal_set_event                        
0001c08d  HCI_Init                              
0001c0bf  HCI_ProcessEvent                      
0001c0fb  HCI_TestAppTaskRegister               
0001c101  HCI_GAPTaskRegister                   
0001c107  HCI_L2CAPTaskRegister                 
0001c10d  HCI_SMPTaskRegister                   
0001c113  HCI_ExtTaskRegister                   
0001c135  LL_RxDataCompleteCback                
0001c31d  __aeabi_memcpy                        
0001c31d  __aeabi_memcpy4                       
0001c31d  __aeabi_memcpy8                       
0001c31d  memcpy                                
0001c3b9  osal_CbTimerProcessEvent              
0001c44d  osal_msg_receive                      
0001c4e1  MB_SendCommand                        
0001c565  GAP_ResolvePrivateAddr                
0001c569  gapIsAdvertising                      
0001c571  gapIsScanning                         
0001c581  gapValidADType                        
0001c595  gapFindADType                         
0001c5e7  __aeabi_memclr                        
0001c5e7  __aeabi_memclr4                       
0001c5e7  __aeabi_memclr8                       
0001c5e9  __aeabi_memset                        
0001c5e9  __aeabi_memset4                       
0001c5e9  __aeabi_memset8                       
0001c5ef  memset                                
0001c661  NOROM_IntDisable                      
0001c6d9  NOROM_IntEnable                       
0001c751  __TI_auto_init                        
0001c7c1  MB_EnableInts                         
0001c82d  __TI_decompress_lzss                  
0001c895  osal_CbTimerUpdate                    
0001c8fd  osal_pwrmgr_task_state                
0001c965  GATTServApp_ProcessCCCWriteReq        
0001c9c9  osal_msg_send                         
0001ca29  osal_CbTimerStop                      
0001cad5  MB_Init                               
0001cb21  osal_bm_free                          
0001cb6d  copy_in                               
0001cbb9  osalAddTimer                          
0001cc01  MB_DisableInts                        
0001cc45  HalTRNG_GetTRNG                       
0001cd01  MB_EnableHWInts                       
0001cd3d  osal_bm_alloc                         
0001cd79  osal_start_reload_timer               
0001cded  GATTServApp_InitCharCfg               
0001ce21  HalTRNG_InitTRNG                      
0001ce89  mbCpe0Isr                             
0001cebd  mbCpe1Isr                             
0001cef1  mbHwIsr                               
0001cf25  osal_clear_event                      
0001cf59  osal_start_timerEx                    
0001cf8d  osal_stop_timerEx                     
0001cff1  osal_get_timeoutEx                    
0001d021  osal_build_uint32                     
0001d07d  bleDispatch_BMAlloc                   
0001d0d5  osal_bm_adjust_header                 
0001d0fd  osal_mem_alloc                        
0001d125  osal_next_timeout                     
0001d14d  MB_ClearInts                          
0001d195  osal_msg_allocate                     
0001d1b9  osal_service_entry                    
0001d29d  mbCmdAckIsr                           
0001d2bd  osalFindTimer                         
0001d2dd  osal_mem_free                         
0001d2fd  osal_memcmp                           
0001d31d  osal_msg_deallocate                   
0001d375  osal_memdup                           
0001d3ad  osal_revmemcpy                        
0001d3c9  osal_isbufset                         
0001d3e3  bleDispatch_BMFree                    
0001d3fb  osal_buffer_uint32                    
0001d413  osal_memcpy                           
0001d42b  __aeabi_lmul                          
0001d443  ROM_Spinlock                          
0001d459  osal_strlen                           
0001d46d  GATTServApp_ReadCharCfg               
0001d49d  osal_rand                             
0001d4b5  __TI_decompress_none                  
0001d4c3  NOROM_CPUcpsid                        
0001d4cf  NOROM_CPUcpsie                        
0001d4db  __TI_zero_init                        
0001d4e7  osal_CbTimerStart                     
0001d4f5  osal_self                             
0001d501  osal_memset                           
0001d505  osal_snv_read                         
0001d509  osal_snv_write                        
0001d89c  R2F_Flash_JT                          
0001d938  R2R_Flash_JT                          
0001df00  R2F_Flash_JT_CommonROM                
0001df18  R2R_Flash_JT_CommonROM                
0001e00c  tasksArr                              
0001e030  txPowerTable                          
0001e034  txPwrTbl                              
0001e03c  rfCfgVal                              
0001e040  rxPktSuffix                           
0001e044  advPktSuffix                          
0001e048  scanPktSuffix                         
0001e04c  initPktSuffix                         
0001e050  wlSize                                
0001e054  maxPktsPerEvt                         
0001e058  rfOpLoc                               
0001e05c  llConfigTable                         
0001e09c  ll_buildRevision                      
0001e0a0  __TI_static_base__                    
0001e194  __TI_Handler_Table_Base               
0001e1a0  __TI_Handler_Table_Limit              
0001e1b0  __TI_CINIT_Base                       
0001e1c8  __TI_CINIT_Limit                      
10005000  A1_rw_1                               
10005000  __checksum_begin                      
10005001  ROM_BASE_ADDR                         
10005004  P1_ro_1                               
10005549  LL_TX_bm_alloc                        
1000556d  LL_RX_bm_alloc                        
100056c9  LL_ReadBDADDR                         
100056e9  LL_SetRandomAddress                   
10005719  LL_ClearWhiteList                     
10005739  LL_AddWhiteListDevice                 
10005765  LL_RemoveWhiteListDevice              
100057a1  LL_ReadWlSize                         
100057b9  LL_NumEmptyWlEntries                  
100057d5  LL_Encrypt                            
100057f5  LL_Rand                               
10005801  LL_PseudoRand                         
10005879  LL_ReadLocalSupportedFeatures         
1000589d  LL_ReadLocalVersionInfo               
100058d5  LL_CtrlToHostFlowControl              
100058e9  LL_ReadRemoteVersionInfo              
100059a1  LL_ReadChanMap                        
100059d5  LL_ReadRssi                           
10005a39  LL_Disconnect                         
10005e69  LL_SetAdvParam                        
10005f89  LL_SetAdvData                         
10006105  LL_ReadAdvChanTxPower                 
1000612d  LL_SetScanRspData                     
1000617d  LL_SetScanParam                       
10006209  LL_SetScanControl                     
100066c5  LL_CreateConnCancel                   
1000678d  LL_ConnActive                         
10006ad9  LL_EXT_SetRxGain                      
10006b59  LL_EXT_OnePacketPerEvent              
10006b7d  LL_EXT_ClkDivOnHalt                   
10006b81  LL_EXT_DeclareNvUsage                 
10006b85  LL_EXT_Decrypt                        
10006bc5  LL_EXT_SetFastTxResponseTime          
10006bdd  LL_EXT_SetSlaveLatencyOverride        
10006c01  LL_EXT_ModemTestTx                    
10006c91  LL_EXT_ModemHopTestTx                 
10006dd1  LL_EXT_EndModemTest                   
10006e01  LL_EXT_SetBDADDR                      
10006e85  LL_EXT_SetSCA                         
10006ef9  LL_EXT_SetFreqTune                    
10006efd  LL_EXT_SaveFreqTune                   
10006f49  LL_EXT_MapPmIoPort                    
10006f4d  LL_EXT_DisconnectImmed                
10006f99  LL_EXT_PacketErrorRate                
10006fed  LL_EXT_PERbyChan                      
1000701d  LL_EXT_ExtendRfRange                  
10007021  LL_EXT_HaltDuringRf                   
10007025  LL_EXT_AdvEventNotice                 
100070a1  LL_EXT_DelaySleep                     
100070d5  LL_EXT_ResetSystem                    
10007109  LL_EXT_OverlappedProcessing           
1000710d  LL_EXT_NumComplPktsLimit              
10007201  llResetRadio                          
1000720d  llHaltRadio                           
10007269  llRfStartFS                           
100072e1  llSetFreqTune                         
100072e5  llDisableRfInts                       
100072e9  llClearRfInts                         
100072ed  llEnableRfInts                        
100072f1  llProcessPostRfOps                    
100073a5  llCheckWhiteListUsage                 
100073e5  llSetupAdv                            
100075fd  llSetupScan                           
100077b5  llSetupInit                           
10007985  llSetupConn                           
100079c9  llSetupUpdateParamReq                 
10007aed  llSetupEncReq                         
10007b95  llSetupEncRsp                         
10007c55  llSetupStartEncReq                    
10007ca9  llSetupStartEncRsp                    
10007cfd  llSetupPauseEncReq                    
10007d55  llSetupPauseEncRsp                    
10007df5  llSetupRejectInd                      
10007f29  llSetupVersionIndReq                  
10008069  llSetupUnknownRsp                     
100080bd  llEnqueueCtrlPkt                      
100082f1  llAtLeastTwoChans                     
10008429  llReleaseConnId                       
10008461  llReleaseAllConnId                    
10008631  llConnTerminate                       
10008665  llPendingUpdateParam                  
100086b9  llGenerateCRC                         
100086f1  llEventInRange                        
10008719  llEventDelta                          
10008721  llConvertLstoToEvent                  
10008741  llConvertCtrlProcTimeoutToEvent       
100087c9  llWriteTxData                         
10008889  llEnqueueDataQ                        
100088b5  llEnqueueHeadDataQ                    
10008921  llDequeueDataQ                        
10008965  llDataQFull                           
10008985  llDataQEmpty                          
100089d9  llMemCopySrc                          
100089f1  llMemCopyDst                          
10008a2d  HCI_DataBufferOverflowEvent           
10008add  HCI_CommandCompleteEvent              
10008ba1  HCI_CommandStatusEvent                
10008bf5  HCI_HardwareErrorEvent                
10008c59  HCI_SendCommandStatusEvent            
10008c81  HCI_SendCommandCompleteEvent          
10008d31  HCI_SendControllerToHostEvent         
10008d81  LL_AdvReportCback                     
10008ead  LL_ConnectionCompleteCback            
10009005  LL_DisconnectCback                    
100091e1  LL_ReadRemoteVersionInfoCback         
1000925d  LL_EncLtkReqCback                     
1000933d  LL_EncChangeCback                     
100093dd  LL_EncKeyRefreshCback                 
10009471  LL_DirectTestEndDoneCback             
100094a1  HCI_bm_alloc                          
100094e9  HCI_SendDataPkt                       
10009525  HCI_DisconnectCmd                     
10009541  HCI_ReadRemoteVersionInfoCmd          
10009571  HCI_SetEventMaskCmd                   
100095d1  HCI_ReadTransmitPowerLevelCmd         
100095f5  HCI_SetControllerToHostFlowCtrlCmd    
10009631  HCI_HostBufferSizeCmd                 
1000965d  HCI_HostNumCompletedPktCmd            
1000973d  HCI_ReadLocalSupportedFeaturesCmd     
10009765  HCI_ReadBDADDRCmd                     
1000978d  HCI_ReadRssiCmd                       
10009829  HCI_LE_ReadLocalSupportedFeaturesCmd  
10009849  HCI_LE_SetRandomAddressCmd            
1000986d  HCI_LE_SetAdvParamCmd                 
100098a1  HCI_LE_SetAdvDataCmd                  
100098bd  HCI_LE_SetScanRspDataCmd              
100098d9  HCI_LE_SetAdvEnableCmd                
100098f5  HCI_LE_ReadAdvChanTxPowerCmd          
10009915  HCI_LE_SetScanParamCmd                
10009941  HCI_LE_SetScanEnableCmd               
1000995d  HCI_LE_CreateConnCmd                  
1000999d  HCI_LE_CreateConnCancelCmd            
100099c9  HCI_LE_ReadWhiteListSizeCmd           
100099f9  HCI_LE_ClearWhiteListCmd              
10009a15  HCI_LE_AddWhiteListCmd                
10009a31  HCI_LE_RemoveWhiteListCmd             
10009a85  HCI_LE_SetHostChanClassificationCmd   
10009aa1  HCI_LE_ReadChannelMapCmd              
10009af5  HCI_LE_EncryptCmd                     
10009b51  HCI_LE_RandCmd                        
10009ba9  HCI_LE_StartEncyptCmd                 
10009bc5  HCI_LE_LtkReqReplyCmd                 
10009be1  HCI_LE_LtkReqNegReplyCmd              
10009c15  HCI_LE_ReadSupportedStatesCmd         
10009c8d  HCI_LE_TestEndCmd                     
10009cd5  HCI_EXT_SetRxGainCmd                  
10009d09  HCI_EXT_SetTxPowerCmd                 
10009d45  HCI_EXT_OnePktPerEvtCmd               
10009d79  HCI_EXT_ClkDivOnHaltCmd               
10009dad  HCI_EXT_DeclareNvUsageCmd             
10009dd1  HCI_EXT_DecryptCmd                    
10009e2d  HCI_EXT_SetLocalSupportedFeaturesCmd  
10009e4d  HCI_EXT_SetFastTxResponseTimeCmd      
10009e6d  HCI_EXT_SetSlaveLatencyOverrideCmd    
10009e8d  HCI_EXT_ModemTestTxCmd                
10009ead  HCI_EXT_ModemHopTestTxCmd             
10009ecd  HCI_EXT_ModemTestRxCmd                
10009eed  HCI_EXT_EndModemTestCmd               
10009f0d  HCI_EXT_SetBDADDRCmd                  
10009f49  HCI_EXT_SetSCACmd                     
10009f69  HCI_EXT_EnablePTMCmd                  
10009f81  HCI_EXT_SetFreqTuneCmd                
10009fb1  HCI_EXT_SaveFreqTuneCmd               
10009fd1  HCI_EXT_SetMaxDtmTxPowerCmd           
10009ff1  HCI_EXT_MapPmIoPortCmd                
1000a011  HCI_EXT_DisconnectImmedCmd            
1000a031  HCI_EXT_PacketErrorRateCmd            
1000a075  HCI_EXT_PERbyChanCmd                  
1000a095  HCI_EXT_ExtendRfRangeCmd              
1000a0d1  HCI_EXT_HaltDuringRfCmd               
1000a0f1  HCI_EXT_AdvEventNoticeCmd             
1000a109  HCI_EXT_BuildRevisionCmd              
1000a195  HCI_EXT_OverlappedProcessingCmd       
1000a1b5  HCI_EXT_NumComplPktsLimitCmd          
1000a1d5  LL_RandCback                          
1000a201  LL_EXT_SetRxGainCback                 
1000a211  LL_EXT_SetTxPowerCback                
1000a259  LL_EXT_PacketErrorRateCback           
1000a2ad  LL_EXT_ExtendRfRangeCback             
1000a335  llScheduler                           
1000a895  llFindStartType                       
1000a939  llFindNextSecTask                     
1000abed  llFreeTask                            
1000ac3d  llGetCurrentTask                      
1000aca9  llGetActiveTasks                      
1000ace1  llGetNumTasks                         
1000ad21  llSetupMailbox                        
1000ad6d  llSetupRfHal                          
1000adb1  llPatchCM0                            
1000adc9  llSetupRATChanCompare                 
1000ae41  llRatChanCBack_B                      
1000ae45  llRatChanCBack_C                      
1000ae49  llRatChanCBack_D                      
1000ae4d  llSetupScanDataEntryQueue             
1000ae95  llSetupInitDataEntryQueue             
1000aeb1  llSetupAdvDataEntryQueue              
1000afa1  llMoveTempTxDataEntries               
1000b009  llGetNumTxDataEntries                 
1000b4c9  LL_ENC_Init                           
1000b4ed  LL_ENC_ReverseBytes                   
1000b50d  LL_ENC_GeneratePseudoRandNum          
1000b51d  LL_ENC_GenerateTrueRandNum            
1000b541  LL_ENC_GenDeviceSKD                   
1000b555  LL_ENC_GenDeviceIV                    
1000b569  LL_ENC_GenerateNonce                  
1000b58d  LL_ENC_LoadKey                        
1000b5f5  LL_ENC_AES128_Encrypt                 
1000b639  LL_ENC_AES128_Decrypt                 
1000b721  LL_ENC_EncryptMsg                     
1000b851  LL_ENC_DecryptMsg                     
1000b965  LL_ENC_Encrypt                        
1000b9dd  LL_ENC_Decrypt                        
1000c1b5  llCheckForLstoDuringSL                
1000c87d  llDirAdv_TaskEnd                      
1000cc71  llAdv_TaskEnd                         
1000cd51  llAdv_TaskAbort                       
1000d10d  llInit_TaskEnd                        
1000d189  WL_Init                               
1000d1ad  WL_Clear                              
1000d1f5  WL_ClearEntry                         
1000d229  WL_GetSize                            
1000d23d  WL_GetNumFreeEntries                  
1000d26d  WL_FindEntry                          
1000d2d9  WL_AddEntry                           
1000d36d  WL_RemoveEntry                        
1000d3dd  WL_SetWlIgnore                        
1000d425  WL_ClearIgnoreList                    
1000d46d  llScan_TaskEnd                        
1000d4ad  llGetAdvChanPDU                       
1000d575  llProcessScanRxFIFO                   
1000d635  llValidAccessAddr                     
1000d695  llGenerateValidAccessAddr             
1000d6b1  llGtSixConsecZerosOrOnes              
1000d6e5  llEqSynchWord                         
1000d6f5  llOneBitSynchWordDiffer               
1000d709  llEqualBytes                          
1000d731  llGtTwentyFourTransitions             
1000d761  llLtTwoChangesInLastSixBits           
1000d795  llEqAlreadyValidAddr                  
1000d7cd  HCI_ReverseBytes                      
1000d8b5  llInitRAT                             
1000d8c1  llGetCurrentTime                      
1000d8c9  llTimeCompare                         
1000d8f5  llTimeDelta                           
1000d94d  llCalcScaFactor                       
1000d964  SCA                                   
1000d9b0  advChan                               
1000d9b4  advEvt2Cmd                            
1000d9c0  advEvt2State                          
1000d9e1  llTaskError                           
1000d9ec  Fill1_1                               
1000dffc  A3_rw_1                               
1000dffc  romRev                                
1000dffd  __checksum_end                        
1000dffe  A2_rw_1                               
1000dffe  P1_ro_2_1                             
1000dffe  __checksum                            
10014c00  A1_rw                                 
10014c00  __checksum_begin_CommonROM            
10014c01  COMMON_ROM_BASE_ADDR                  
10014c04  P1_ro                                 
10014c05  SCALARMUL_init                        
10014ced  SCALARMUL_core                        
10015019  SCALARMUL_final                       
100150e5  SCALARMUL                             
10015101  SAVEPOINT                             
10015141  GETBIT                                
10015155  GETDIGIT                              
100151a5  GETDIGITL2R                           
10015215  SelectReg                             
10015229  ATOMICPATTERN                         
100154f5  JACADD                                
1001568d  INVERT                                
10015821  SQUAREMULTIPLYWORD                    
1001588c  LUTOPCODE                             
10015894  LUTOPSIGN                             
100158ac  LUTC                                  
100158c4  LUTSE                                 
100158dc  LUTINCI                               
100158f4  LUTJ                                  
1001596c  LUTSTATE                              
100159a9  IMPORTLENGTH                          
100159ad  IMPORTMODULUS                         
100159d1  IMPORTOPERAND                         
10015a11  EXPORTOPERAND                         
10015a35  IMPORTDATA                            
10015a51  SETOPERAND                            
10015a6d  COPY                                  
10015a85  ZERO                                  
10015a91  SETWORD                               
10015a9d  mSET                                  
10015bcd  zSET                                  
10015bd5  mINVK                                 
10015d19  zADD                                  
10015d5d  zSUB                                  
10015de9  zMACC32                               
10015e69  zSUB32                                
10015eb5  zADD32                                
10015f0d  zMULT32                               
10015f81  mMULT                                 
10016551  mADD                                  
1001664d  mSUB                                  
10016749  mOUT                                  
10016975  ssp_KeyInit_Sw                        
10016979  sspAesEncrypt_Sw                      
10016985  sspKeyExpansion_Sw                    
10016a99  sspAesEncryptKeyExp_Sw                
10016af5  sspAesEncryptBasic_Sw                 
10016b79  RoundKey_Sw                           
10016c29  AddRoundKeySubBytes_Sw                
10016c45  ShiftRows_Sw                          
10016c79  MixColumns_Sw                         
10016d05  FFMult_Sw                             
10016d29  sspAesDecrypt_Sw                      
10016da1  InvAddRoundKey_Sw                     
10016dc9  InvRoundKey_Sw                        
10016e8d  InvSubBytes_Sw                        
10016ea1  InvShiftRows_Sw                       
10016ed5  InvMixColumns_Sw                      
10016f58  FFMult2                               
10017058  FFMult3                               
10017158  RCon                                  
10017164  Sbox                                  
10017264  InvSbox                               
10017365  SSP_CCM_Auth_Sw                       
100174fd  SSP_CCM_Encrypt_Sw                    
100175ed  SSP_CTR_Encrypt_Sw                    
1001767d  SSP_CCM_Decrypt_Sw                    
10017771  SSP_CTR_Decrypt_Sw                    
10017839  SSP_CCM_InvAuth_Sw                    
10017895  SSP_CCM_Auth_Encrypt_Sw               
100178f5  SSP_CCM_InvAuth_Decrypt_Sw            
10017959  ECC_allocWorkzone                     
10017961  ECC_setWin                            
10017969  ECDSA_sign                            
10017b01  ECDSA_verif                           
10017dbd  ECC_keyGen                            
10017ded  ECDH_commonKey                        
10017e39  SHA256_updateW                        
10017e75  SHA256_round                          
10017ef1  SHA256_nextState                      
10017f49  SHA256_saveBuffer                     
10017ffd  SHA256_init                           
10018019  SHA256_process                        
10018089  SHA256_final                          
10018129  SHA256_full                           
100182ad  RFHAL_InitRfHal                       
10018315  RFHAL_AllocRatChan                    
1001833d  RFHAL_FreeRatChan                     
10018369  RFHAL_MapRatChansToInt                
10018391  RFHAL_RegisterRatChanCallback         
100183b9  RFHAL_InitDataQueue                   
100183c5  RFHAL_QueueRFDataEntries              
10018415  RFHAL_AddTxDataEntry                  
10018485  RFHAL_FreeNextTxDataEntry             
100184a9  RFHAL_AllocDataEntryQueue             
100184c5  RFHAL_FreeDataEntryQueue              
100184cd  RFHAL_GetNextDataEntry                
100184d1  RFHAL_GetTempDataEntry                
100184d5  RFHAL_NextDataEntryDone               
100184f9  RFHAL_AllocDataEntry                  
10018549  RFHAL_FreeDataEntry                   
10018551  RFHAL_BuildRingBuffer                 
100185e1  RFHAL_BuildDataEntryRingBuffer        
10018669  RFHAL_BuildLinkedBuffer               
10018935  MB_ReadMailboxStatus                  
1001893d  MB_RegisterIsrCback                   
10018945  MB_FwDebugDump                        
10018a19  AesCcm_authEncrypt_Sw                 
10018a35  AesCcm_decryptAuth_Sw                 
10018a99  Aes_encrypt_Sw                        
10018ac5  Aes_decrypt_Sw                        
10018b09  AesCcm_getNumBlocks_Sw                
10018b0c  NIST256_p                             
10018b30  NIST256_r                             
10018b54  NIST256_a                             
10018b78  NIST256_b                             
10018b9c  NIST256_Gx                            
10018bc0  NIST256_Gy                            
10018ced  __exit                                
10018d6c  Fill1                                 
10019ffc  A3_rw                                 
10019ffd  __checksum_end_CommonROM              
10019ffe  A2_rw                                 
10019ffe  P1_ro_2                               
10019ffe  __checksum_CommonROM                  
20004460  baseTaskID                            
20004464  cbTimers                              
20004610  LL_PM_RFCmdDoneEventCallback          
2000461a  osal_entity                           
2000461c  osal_qHead                            
20004620  osal_eventloop_hook                   
20004624  osal_semaphore                        
20004628  osal_last_timestamp                   
2000462c  osal_tickperiod                       
20004630  osal_max_msecs                        
20004664  gapAppTaskID                          
20004665  gapProfileRole                        
20004666  gapDeviceAddrMode                     
20004667  gapAutoAdvPrivateAddrChange           
20004668  gapPrivateAddrChangeTimeout           
2000469c  slaveUpdateReq                        
200046a4  slaveConnHandle                       
200046a8  pEstLink                              
200046ac  pAuthLink                             
200046b0  pfnCentralConnCBs                     
200046d0  l2capUserConfig                       
200046d4  l2capTaskID                           
200046d5  l2capNumChannels                      
200046d6  l2capNumDataPkts                      
200046d7  l2capNumPSM                           
200046d8  l2capNumCoChannels                    
200046dc  l2capChannels                         
200046e0  l2capPsm                              
200046e4  llUserConfig                          
200046f4  gapTaskID                             
200046f5  gapUnwantedTaskID                     
200046f8  pfnPeripheralCBs                      
2000471c  OSAL_timeSeconds                      
20004728  pwrmgr_initialized                    
2000472a  pwrmgr_attribute                      
20004734  l2capMtuSize                          
20004739  reqTaskId                             
2000473a  gattAppTaskID                         
2000473b  appTaskID                             
20004740  bleDispatch_TaskID                    
20004741  rspBuf                                
2000477c  linkDBNumConns                        
200047b4  l2capFixedChannels                    
20004804  maxPduSize                            
20004805  rfFeModeBias                          
20004808  advInfoExt                            
2000480c  maxQueuedPdu                          
20004810  llConnectionExt                       
20004814  activeConns                           
20004818  SysBootMsg                            
2000481c  sclkSrc                               
20004838  pBleEvtMask                           
20004840  pHciEvtMask2                          
20004848  ICall_dispatcher                      
2000484c  ICall_enterCriticalSection            
20004850  ICall_leaveCriticalSection            
20004854  GATTServApp_TaskID                    
20004860  pPairingParams                        
20004864  pfnResponderCBs                       
2000486c  timerHead                             
20004880  linkCmd                               
20004884  linkParam                             
20004888  pGapAdvertState                       
2000488c  pGapDiscReq                           
20004890  pfnPeripheralConnCBs                  
20004898  serverInfoTbl                         
200048a8  tasksEvents                           
200048ae  gattNumConns                          
200048af  gattTaskID                            
200048b2  hciTaskID                             
200048b3  hciTestTaskID                         
200048b4  hciGapTaskID                          
200048b5  hciL2capTaskID                        
200048b6  hciSmpTaskID                          
200048b7  hciExtTaskID                          
200048bb  nextConnId                            
200048bd  smTaskID                              
200048e8  A4_rw_1                               
200048e8  RAM_BASE_ADDR                         
200048fc  P2_zi_1                               
200048fc  scanDataEntry                         
200049dc  scanDataQueue                         
200049ec  advInfo                               
20004a8c  wlTable                               
20004b10  wlTableScan                           
20004b94  initDataEntry                         
20004bcc  initDataQueue                         
20004bdc  advDataEntry                          
20004c14  advDataQueue                          
20004c24  advCmd                                
20004c6c  ownPublicAddr                         
20004c74  ownRandomAddr                         
20004c7c  ownSavedPublicAddr                    
20004c84  LL_TaskID                             
20004c85  maxTxPwrForDTM                        
20004c86  onePktPerEvt                          
20004c87  numComplPktsLimit                     
20004c88  numComplPktsFlush                     
20004c89  slOverride                            
20004c8a  rxFifoFlowCtrl                        
20004c8b  numTxDataBufs                         
20004c8c  verInfo                               
20004c94  rfCfgAdiVal                           
20004c96  sleepDelay                            
20004c98  buildInfo                             
20004c9c  peerInfo                              
20004ca8  chanMapUpdate                         
20004cb0  llConns                               
20004cb8  llState                               
20004cb9  curTxPowerVal                         
20004cba  numComplPkts                          
20004cbb  fastTxRespTime                        
20004cbc  maxNumConns                           
20004cbe  postRfOperations                      
20004cc0  rssiCorrection                        
20004cc4  taskEndAction                         
20004cf0  initParam                             
20004d14  scanParam                             
20004d38  slvParam                              
20004d58  advParam                              
20004d78  txModemTestCmd                        
20004d94  scanInfo                              
20004db0  initCmd                               
20004dc8  connReqData                           
20004de0  slvCmd                                
20004df8  scanCmd                               
20004e10  scanOutput                            
20004e28  trxTestCmd                            
20004e40  rxModemTestCmd                        
20004e58  initInfo                              
20004e70  connOutput                            
20004e84  rxTestParam                           
20004e98  advOutput                             
20004ea8  txTestParam                           
20004eb8  initOutput                            
20004ec4  rxTestOut                             
20004ed0  deviceFeatureSet                      
20004edc  dtmInfo                               
20004ee8  cachedTRNGdata                        
20004ef4  llTaskList                            
20004f00  pHciEvtMask                           
20004f08  bleEvtMask                            
20004f0a  taskEndStatus                         
20004f0c  rxDataQ                               
20004f10  rxRingBuf                             
20004f14  mstCmd                                
20004f18  mstParam                              
20004f1c  txDataQ                               
20004f20  txTestOut                             
20004f24  ctrlToHostEnable                      
20004f26  numHostBufs                           
20004f28  hciPTMenabled                         
20004f2c  A4_rw                                 
20004f2c  COMMON_RAM_BASE_ADDR                  
20004f40  P2_rw                                 
20004f40  P2_s0                                 
20004f40  win                                   
20004f44  workzone                              
20004f48  data_p                                
20004f4c  data_r                                
20004f50  data_a                                
20004f54  inScalar                              
20004f58  inPointX                              
20004f5c  inPointY                              
20004f60  outPointX                             
20004f64  outPointY                             
20004f68  SCAL                                  
20004f6c  EXPX                                  
20004f70  EXPY                                  
20004f74  EXPZ                                  
20004f78  EXPW                                  
20004f7c  ACCX                                  
20004f80  ACCY                                  
20004f84  ACCZ                                  
20004f88  TMP1                                  
20004f8c  TMP2                                  
20004f90  TMP3                                  
20004f94  TMP4                                  
20004f98  TMP5                                  
20004f9c  TMP6                                  
20004fa0  data_Gx                               
20004fa4  data_Gy                               
20004fa8  data_b                                
20004fac  P2_zi                                 
20004fac  ratChanInfo                           
20004fcc  fwInfoCmd                             
20004fd8  MSBMOD                                
20004fdc  aux64                                 
20004fe4  MOD                                   
20004fe8  LEN                                   
20004fec  mbIntCbackTable                       
20004ffc  pSspAesEncrypt_Sw                     
ffffffff  __TI_pprof_out_hndl                   
ffffffff  __TI_prof_data_size                   
ffffffff  __TI_prof_data_start                  
ffffffff  __binit__                             
ffffffff  __c_args__                            
ffffffff  binit                                 
UNDEFED   SHT$$INIT_ARRAY$$Base                 
UNDEFED   SHT$$INIT_ARRAY$$Limit                

[1202 symbols]
